Archive member included because of file (symbol)

c:/devkitPro2007/libnds/lib\libfat.a(libfat.o)
                              ./fs.o (fatInitDefault)
c:/devkitPro2007/libnds/lib\libfat.a(partition.o)
                              c:/devkitPro2007/libnds/lib\libfat.a(libfat.o) (_FAT_partition_setDefaultInterface)
c:/devkitPro2007/libnds/lib\libfat.a(disc.o)
                              c:/devkitPro2007/libnds/lib\libfat.a(partition.o) (_FAT_disc_gbaSlotFindInterface)
c:/devkitPro2007/libnds/lib\libfat.a(io_m3cf.o)
                              c:/devkitPro2007/libnds/lib\libfat.a(disc.o) (_io_m3cf)
c:/devkitPro2007/libnds/lib\libfat.a(io_m3sd.o)
                              c:/devkitPro2007/libnds/lib\libfat.a(disc.o) (_io_m3sd)
c:/devkitPro2007/libnds/lib\libfat.a(io_mpcf.o)
                              c:/devkitPro2007/libnds/lib\libfat.a(disc.o) (_io_mpcf)
c:/devkitPro2007/libnds/lib\libfat.a(io_njsd.o)
                              c:/devkitPro2007/libnds/lib\libfat.a(disc.o) (_io_njsd)
c:/devkitPro2007/libnds/lib\libfat.a(io_nmmc.o)
                              c:/devkitPro2007/libnds/lib\libfat.a(disc.o) (_io_nmmc)
c:/devkitPro2007/libnds/lib\libfat.a(io_sccf.o)
                              c:/devkitPro2007/libnds/lib\libfat.a(disc.o) (_io_sccf)
c:/devkitPro2007/libnds/lib\libfat.a(io_scsd.o)
                              c:/devkitPro2007/libnds/lib\libfat.a(disc.o) (_io_scsd)
c:/devkitPro2007/libnds/lib\libfat.a(io_sd_common.o)
                              c:/devkitPro2007/libnds/lib\libfat.a(io_scsd.o) (_SD_CRC7)
c:/devkitPro2007/libnds/lib\libfat.a(io_dldi.o)
                              c:/devkitPro2007/libnds/lib\libfat.a(disc.o) (_io_dldi)
c:/devkitPro2007/libnds/lib\libfat.a(io_scsd_s.o)
                              c:/devkitPro2007/libnds/lib\libfat.a(io_scsd.o) (_SCSD_writeData_s)
c:/devkitPro2007/libnds/lib\libfat.a(cache.o)
                              c:/devkitPro2007/libnds/lib\libfat.a(partition.o) (_FAT_cache_invalidate)
c:/devkitPro2007/libnds/lib\libfat.a(fatdir.o)
                              c:/devkitPro2007/libnds/lib\libfat.a(libfat.o) (_FAT_link_r)
c:/devkitPro2007/libnds/lib\libfat.a(fatfile.o)
                              c:/devkitPro2007/libnds/lib\libfat.a(libfat.o) (_FAT_fstat_r)
c:/devkitPro2007/libnds/lib\libfat.a(file_allocation_table.o)
                              c:/devkitPro2007/libnds/lib\libfat.a(fatfile.o) (_FAT_fat_nextCluster)
c:/devkitPro2007/libnds/lib\libfat.a(filetime.o)
                              c:/devkitPro2007/libnds/lib\libfat.a(fatdir.o) (_FAT_filetime_getTimeFromRTC)
c:/devkitPro2007/libnds/lib\libfat.a(io_cf_common.o)
                              c:/devkitPro2007/libnds/lib\libfat.a(io_m3cf.o) (_CF_isInserted)
c:/devkitPro2007/libnds/lib\libfat.a(io_m3_common.o)
                              c:/devkitPro2007/libnds/lib\libfat.a(io_m3cf.o) (_M3_changeMode)
c:/devkitPro2007/libnds/lib\libfat.a(io_sc_common.o)
                              c:/devkitPro2007/libnds/lib\libfat.a(io_sccf.o) (_SC_changeMode)
c:/devkitPro2007/libnds/lib\libfat.a(directory.o)
                              c:/devkitPro2007/libnds/lib\libfat.a(fatdir.o) (_FAT_directory_entryGetCluster)
c:/devkitPro2007/libnds/lib\libnds9.a(console.o)
                              ./snemul_gui.o (consoleClear)
c:/devkitPro2007/libnds/lib\libnds9.a(keys.o)
                              ./main.o (keysHeld)
c:/devkitPro2007/libnds/lib\libnds9.a(video.o)
                              ./main.o (vramSetBankA)
c:/devkitPro2007/libnds/lib\libnds9.a(card.o)
                              c:/devkitPro2007/libnds/lib\libfat.a(io_nmmc.o) (cardWriteCommand)
c:/devkitPro2007/libnds/lib\libnds9.a(interrupts.o)
                              c:/devkitPro2007/libnds/lib\libfat.a(io_njsd.o) (irqDisable)
c:/devkitPro2007/libnds/lib\libnds9.a(exceptionHandler.o)
                              ./main.o (getCPSR)
c:/devkitPro2007/libnds/lib\libnds9.a(biosCalls.o)
                              ./apu.o (swiWaitForVBlank)
c:/devkitPro2007/libnds/lib\libnds9.a(interruptDispatcher.o)
                              c:/devkitPro2007/libnds/lib\libnds9.a(interrupts.o) (IntrMain)
c:/devkitPro2007/libnds/lib\libnds9.a(default_font.o)
                              c:/devkitPro2007/libnds/lib\libnds9.a(console.o) (default_font_bin)
c:/devkitpro2007/devkitarm/bin/../lib/gcc/arm-eabi/4.1.1\libgcc.a(_udivsi3.o)
                              ./core.o (__aeabi_uidiv)
c:/devkitpro2007/devkitarm/bin/../lib/gcc/arm-eabi/4.1.1\libgcc.a(_divsi3.o)
                              ./engine.o (__aeabi_idiv)
c:/devkitpro2007/devkitarm/bin/../lib/gcc/arm-eabi/4.1.1\libgcc.a(_dvmd_tls.o)
                              c:/devkitpro2007/devkitarm/bin/../lib/gcc/arm-eabi/4.1.1\libgcc.a(_udivsi3.o) (__div0)
c:/devkitpro2007/devkitarm/bin/../lib/gcc/arm-eabi/4.1.1\libgcc.a(_call_via_rX.o)
                              c:/devkitpro2007/devkitarm/bin/../lib/gcc/arm-eabi/4.1.1/../../../../arm-eabi/lib/ds_arm9_crt0.o (_call_via_r3)
c:/devkitpro2007/devkitarm/bin/../lib/gcc/arm-eabi/4.1.1\libgcc.a(_addsubdf3.o)
                              ./conf.o (__aeabi_f2d)
c:/devkitpro2007/devkitarm/bin/../lib/gcc/arm-eabi/4.1.1\libgcc.a(_truncdfsf2.o)
                              ./conf.o (__aeabi_d2f)
c:/devkitpro2007/devkitarm/bin/../lib/gcc/arm-eabi/4.1.1/../../../../arm-eabi/lib\libc.a(lib_a-atof.o)
                              ./conf.o (atof)
c:/devkitpro2007/devkitarm/bin/../lib/gcc/arm-eabi/4.1.1/../../../../arm-eabi/lib\libc.a(lib_a-ctype_.o)
                              ./conf.o (__ctype_ptr)
c:/devkitpro2007/devkitarm/bin/../lib/gcc/arm-eabi/4.1.1/../../../../arm-eabi/lib\libc.a(lib_a-fclose.o)
                              ./conf.o (fclose)
c:/devkitpro2007/devkitarm/bin/../lib/gcc/arm-eabi/4.1.1/../../../../arm-eabi/lib\libc.a(lib_a-fflush.o)
                              c:/devkitpro2007/devkitarm/bin/../lib/gcc/arm-eabi/4.1.1/../../../../arm-eabi/lib\libc.a(lib_a-fclose.o) (fflush)
c:/devkitpro2007/devkitarm/bin/../lib/gcc/arm-eabi/4.1.1/../../../../arm-eabi/lib\libc.a(lib_a-findfp.o)
                              c:/devkitpro2007/devkitarm/bin/../lib/gcc/arm-eabi/4.1.1/../../../../arm-eabi/lib\libc.a(lib_a-fclose.o) (__sfp_lock_acquire)
c:/devkitpro2007/devkitarm/bin/../lib/gcc/arm-eabi/4.1.1/../../../../arm-eabi/lib\libc.a(lib_a-fopen.o)
                              ./conf.o (fopen)
c:/devkitpro2007/devkitarm/bin/../lib/gcc/arm-eabi/4.1.1/../../../../arm-eabi/lib\libc.a(lib_a-fputc.o)
                              ./conf.o (fputc)
c:/devkitpro2007/devkitarm/bin/../lib/gcc/arm-eabi/4.1.1/../../../../arm-eabi/lib\libc.a(lib_a-fputs.o)
                              ./conf.o (fputs)
c:/devkitpro2007/devkitarm/bin/../lib/gcc/arm-eabi/4.1.1/../../../../arm-eabi/lib\libc.a(lib_a-fread.o)
                              ./conf.o (fread)
c:/devkitpro2007/devkitarm/bin/../lib/gcc/arm-eabi/4.1.1/../../../../arm-eabi/lib\libc.a(lib_a-freer.o)
                              c:/devkitpro2007/devkitarm/bin/../lib/gcc/arm-eabi/4.1.1/../../../../arm-eabi/lib\libc.a(lib_a-fclose.o) (_free_r)
c:/devkitpro2007/devkitarm/bin/../lib/gcc/arm-eabi/4.1.1/../../../../arm-eabi/lib\libc.a(lib_a-fseek.o)
                              c:/devkitpro2007/devkitarm/bin/../lib/gcc/arm-eabi/4.1.1/../../../../arm-eabi/lib\libc.a(lib_a-fopen.o) (_fseek_r)
c:/devkitpro2007/devkitarm/bin/../lib/gcc/arm-eabi/4.1.1/../../../../arm-eabi/lib\libc.a(lib_a-fstatr.o)
                              c:/devkitpro2007/devkitarm/bin/../lib/gcc/arm-eabi/4.1.1/../../../../arm-eabi/lib\libc.a(lib_a-fseek.o) (_fstat_r)
c:/devkitpro2007/devkitarm/bin/../lib/gcc/arm-eabi/4.1.1/../../../../arm-eabi/lib\libc.a(lib_a-ftell.o)
                              ./fs.o (ftell)
c:/devkitpro2007/devkitarm/bin/../lib/gcc/arm-eabi/4.1.1/../../../../arm-eabi/lib\libc.a(lib_a-fvwrite.o)
                              c:/devkitpro2007/devkitarm/bin/../lib/gcc/arm-eabi/4.1.1/../../../../arm-eabi/lib\libc.a(lib_a-fputs.o) (__sfvwrite_r)
c:/devkitpro2007/devkitarm/bin/../lib/gcc/arm-eabi/4.1.1/../../../../arm-eabi/lib\libc.a(lib_a-fwalk.o)
                              c:/devkitpro2007/devkitarm/bin/../lib/gcc/arm-eabi/4.1.1/../../../../arm-eabi/lib\libc.a(lib_a-fflush.o) (_fwalk)
c:/devkitpro2007/devkitarm/bin/../lib/gcc/arm-eabi/4.1.1/../../../../arm-eabi/lib\libc.a(lib_a-fwrite.o)
                              ./conf.o (fwrite)
c:/devkitpro2007/devkitarm/bin/../lib/gcc/arm-eabi/4.1.1/../../../../arm-eabi/lib\libc.a(lib_a-impure.o)
                              c:/devkitPro2007/libnds/lib\libnds9.a(console.o) (_impure_ptr)
c:/devkitpro2007/devkitarm/bin/../lib/gcc/arm-eabi/4.1.1/../../../../arm-eabi/lib\libc.a(lib_a-init.o)
                              c:/devkitpro2007/devkitarm/bin/../lib/gcc/arm-eabi/4.1.1/../../../../arm-eabi/lib/ds_arm9_crt0.o (__libc_init_array)
c:/devkitpro2007/devkitarm/bin/../lib/gcc/arm-eabi/4.1.1/../../../../arm-eabi/lib\libc.a(lib_a-iprintf.o)
                              ./engine.o (iprintf)
c:/devkitpro2007/devkitarm/bin/../lib/gcc/arm-eabi/4.1.1/../../../../arm-eabi/lib\libc.a(lib_a-makebuf.o)
                              c:/devkitpro2007/devkitarm/bin/../lib/gcc/arm-eabi/4.1.1/../../../../arm-eabi/lib\libc.a(lib_a-fseek.o) (__smakebuf)
c:/devkitpro2007/devkitarm/bin/../lib/gcc/arm-eabi/4.1.1/../../../../arm-eabi/lib\libc.a(lib_a-malloc.o)
                              ./conf.o (free)
c:/devkitpro2007/devkitarm/bin/../lib/gcc/arm-eabi/4.1.1/../../../../arm-eabi/lib\libc.a(lib_a-mallocr.o)
                              c:/devkitpro2007/devkitarm/bin/../lib/gcc/arm-eabi/4.1.1/../../../../arm-eabi/lib\libc.a(lib_a-findfp.o) (_malloc_r)
c:/devkitpro2007/devkitarm/bin/../lib/gcc/arm-eabi/4.1.1/../../../../arm-eabi/lib\libc.a(lib_a-memchr.o)
                              c:/devkitpro2007/devkitarm/bin/../lib/gcc/arm-eabi/4.1.1/../../../../arm-eabi/lib\libc.a(lib_a-fvwrite.o) (memchr)
c:/devkitpro2007/devkitarm/bin/../lib/gcc/arm-eabi/4.1.1/../../../../arm-eabi/lib\libc.a(lib_a-memcpy.o)
                              ./apu.o (memcpy)
c:/devkitpro2007/devkitarm/bin/../lib/gcc/arm-eabi/4.1.1/../../../../arm-eabi/lib\libc.a(lib_a-memmove.o)
                              ./snes.o (memmove)
c:/devkitpro2007/devkitarm/bin/../lib/gcc/arm-eabi/4.1.1/../../../../arm-eabi/lib\libc.a(lib_a-memset.o)
                              ./engine.o (memset)
c:/devkitpro2007/devkitarm/bin/../lib/gcc/arm-eabi/4.1.1/../../../../arm-eabi/lib\libc.a(lib_a-mlock.o)
                              c:/devkitpro2007/devkitarm/bin/../lib/gcc/arm-eabi/4.1.1/../../../../arm-eabi/lib\libc.a(lib_a-freer.o) (__malloc_lock)
c:/devkitpro2007/devkitarm/bin/../lib/gcc/arm-eabi/4.1.1/../../../../arm-eabi/lib\libc.a(lib_a-openr.o)
                              c:/devkitpro2007/devkitarm/bin/../lib/gcc/arm-eabi/4.1.1/../../../../arm-eabi/lib\libc.a(lib_a-fopen.o) (_open_r)
c:/devkitpro2007/devkitarm/bin/../lib/gcc/arm-eabi/4.1.1/../../../../arm-eabi/lib\libc.a(lib_a-putc.o)
                              c:/devkitpro2007/devkitarm/bin/../lib/gcc/arm-eabi/4.1.1/../../../../arm-eabi/lib\libc.a(lib_a-fputc.o) (_putc_r)
c:/devkitpro2007/devkitarm/bin/../lib/gcc/arm-eabi/4.1.1/../../../../arm-eabi/lib\libc.a(lib_a-qsort.o)
                              ./snemul_gui.o (qsort)
c:/devkitpro2007/devkitarm/bin/../lib/gcc/arm-eabi/4.1.1/../../../../arm-eabi/lib\libc.a(lib_a-reallocr.o)
                              c:/devkitpro2007/devkitarm/bin/../lib/gcc/arm-eabi/4.1.1/../../../../arm-eabi/lib\libc.a(lib_a-fvwrite.o) (_realloc_r)
c:/devkitpro2007/devkitarm/bin/../lib/gcc/arm-eabi/4.1.1/../../../../arm-eabi/lib\libc.a(lib_a-reent.o)
                              c:/devkitpro2007/devkitarm/bin/../lib/gcc/arm-eabi/4.1.1/../../../../arm-eabi/lib\libc.a(lib_a-fstatr.o) (errno)
c:/devkitpro2007/devkitarm/bin/../lib/gcc/arm-eabi/4.1.1/../../../../arm-eabi/lib\libc.a(lib_a-refill.o)
                              c:/devkitpro2007/devkitarm/bin/../lib/gcc/arm-eabi/4.1.1/../../../../arm-eabi/lib\libc.a(lib_a-fread.o) (__srefill_r)
c:/devkitpro2007/devkitarm/bin/../lib/gcc/arm-eabi/4.1.1/../../../../arm-eabi/lib\libc.a(lib_a-sbrkr.o)
                              c:/devkitpro2007/devkitarm/bin/../lib/gcc/arm-eabi/4.1.1/../../../../arm-eabi/lib\libc.a(lib_a-freer.o) (_sbrk_r)
c:/devkitpro2007/devkitarm/bin/../lib/gcc/arm-eabi/4.1.1/../../../../arm-eabi/lib\libc.a(lib_a-setvbuf.o)
                              c:/devkitPro2007/libnds/lib\libnds9.a(console.o) (setvbuf)
c:/devkitpro2007/devkitarm/bin/../lib/gcc/arm-eabi/4.1.1/../../../../arm-eabi/lib\libc.a(lib_a-siscanf.o)
                              c:/devkitPro2007/libnds/lib\libnds9.a(console.o) (siscanf)
c:/devkitpro2007/devkitarm/bin/../lib/gcc/arm-eabi/4.1.1/../../../../arm-eabi/lib\libc.a(lib_a-snprintf.o)
                              ./gui_widgets.o (snprintf)
c:/devkitpro2007/devkitarm/bin/../lib/gcc/arm-eabi/4.1.1/../../../../arm-eabi/lib\libc.a(lib_a-sprintf.o)
                              ./conf.o (sprintf)
c:/devkitpro2007/devkitarm/bin/../lib/gcc/arm-eabi/4.1.1/../../../../arm-eabi/lib\libc.a(lib_a-stdio.o)
                              c:/devkitpro2007/devkitarm/bin/../lib/gcc/arm-eabi/4.1.1/../../../../arm-eabi/lib\libc.a(lib_a-findfp.o) (__sclose)
c:/devkitpro2007/devkitarm/bin/../lib/gcc/arm-eabi/4.1.1/../../../../arm-eabi/lib\libc.a(lib_a-strcasecmp.o)
                              ./conf.o (strcasecmp)
c:/devkitpro2007/devkitarm/bin/../lib/gcc/arm-eabi/4.1.1/../../../../arm-eabi/lib\libc.a(lib_a-strcat.o)
                              ./conf.o (strcat)
c:/devkitpro2007/devkitarm/bin/../lib/gcc/arm-eabi/4.1.1/../../../../arm-eabi/lib\libc.a(lib_a-strchr.o)
                              ./fs.o (strchr)
c:/devkitpro2007/devkitarm/bin/../lib/gcc/arm-eabi/4.1.1/../../../../arm-eabi/lib\libc.a(lib_a-strcmp.o)
                              ./fs.o (strcmp)
c:/devkitpro2007/devkitarm/bin/../lib/gcc/arm-eabi/4.1.1/../../../../arm-eabi/lib\libc.a(lib_a-strcpy.o)
                              ./conf.o (strcpy)
c:/devkitpro2007/devkitarm/bin/../lib/gcc/arm-eabi/4.1.1/../../../../arm-eabi/lib\libc.a(lib_a-strlen.o)
                              ./conf.o (strlen)
c:/devkitpro2007/devkitarm/bin/../lib/gcc/arm-eabi/4.1.1/../../../../arm-eabi/lib\libc.a(lib_a-strncasecmp.o)
                              c:/devkitPro2007/libnds/lib\libfat.a(directory.o) (strncasecmp)
c:/devkitpro2007/devkitarm/bin/../lib/gcc/arm-eabi/4.1.1/../../../../arm-eabi/lib\libc.a(lib_a-strncmp.o)
                              c:/devkitPro2007/libnds/lib\libfat.a(partition.o) (strncmp)
c:/devkitpro2007/devkitarm/bin/../lib/gcc/arm-eabi/4.1.1/../../../../arm-eabi/lib\libc.a(lib_a-strncpy.o)
                              ./conf.o (strncpy)
c:/devkitpro2007/devkitarm/bin/../lib/gcc/arm-eabi/4.1.1/../../../../arm-eabi/lib\libc.a(lib_a-strnlen.o)
                              c:/devkitPro2007/libnds/lib\libfat.a(directory.o) (strnlen)
c:/devkitpro2007/devkitarm/bin/../lib/gcc/arm-eabi/4.1.1/../../../../arm-eabi/lib\libc.a(lib_a-strpbrk.o)
                              c:/devkitPro2007/libnds/lib\libfat.a(directory.o) (strpbrk)
c:/devkitpro2007/devkitarm/bin/../lib/gcc/arm-eabi/4.1.1/../../../../arm-eabi/lib\libc.a(lib_a-strrchr.o)
                              ./engine.o (strrchr)
c:/devkitpro2007/devkitarm/bin/../lib/gcc/arm-eabi/4.1.1/../../../../arm-eabi/lib\libc.a(lib_a-strstr.o)
                              ./fs.o (strstr)
c:/devkitpro2007/devkitarm/bin/../lib/gcc/arm-eabi/4.1.1/../../../../arm-eabi/lib\libc.a(lib_a-strtod.o)
                              c:/devkitpro2007/devkitarm/bin/../lib/gcc/arm-eabi/4.1.1/../../../../arm-eabi/lib\libc.a(lib_a-atof.o) (strtod)
c:/devkitpro2007/devkitarm/bin/../lib/gcc/arm-eabi/4.1.1/../../../../arm-eabi/lib\libc.a(lib_a-strtol.o)
                              ./conf.o (strtol)
c:/devkitpro2007/devkitarm/bin/../lib/gcc/arm-eabi/4.1.1/../../../../arm-eabi/lib\libc.a(lib_a-strtoul.o)
                              ./conf.o (strtoul)
c:/devkitpro2007/devkitarm/bin/../lib/gcc/arm-eabi/4.1.1/../../../../arm-eabi/lib\libc.a(lib_a-strupr.o)
                              c:/devkitPro2007/libnds/lib\libfat.a(directory.o) (strupr)
c:/devkitpro2007/devkitarm/bin/../lib/gcc/arm-eabi/4.1.1/../../../../arm-eabi/lib\libc.a(lib_a-sysclose.o)
                              ./fs.o (close)
c:/devkitpro2007/devkitarm/bin/../lib/gcc/arm-eabi/4.1.1/../../../../arm-eabi/lib\libc.a(lib_a-syslseek.o)
                              ./fs.o (lseek)
c:/devkitpro2007/devkitarm/bin/../lib/gcc/arm-eabi/4.1.1/../../../../arm-eabi/lib\libc.a(lib_a-sysopen.o)
                              ./fs.o (open)
c:/devkitpro2007/devkitarm/bin/../lib/gcc/arm-eabi/4.1.1/../../../../arm-eabi/lib\libc.a(lib_a-sysread.o)
                              ./fs.o (read)
c:/devkitpro2007/devkitarm/bin/../lib/gcc/arm-eabi/4.1.1/../../../../arm-eabi/lib\libc.a(lib_a-toupper.o)
                              ./fs.o (toupper)
c:/devkitpro2007/devkitarm/bin/../lib/gcc/arm-eabi/4.1.1/../../../../arm-eabi/lib\libc.a(lib_a-vfiprintf.o)
                              c:/devkitpro2007/devkitarm/bin/../lib/gcc/arm-eabi/4.1.1/../../../../arm-eabi/lib\libc.a(lib_a-iprintf.o) (_vfiprintf_r)
c:/devkitpro2007/devkitarm/bin/../lib/gcc/arm-eabi/4.1.1/../../../../arm-eabi/lib\libc.a(lib_a-vfiscanf.o)
                              c:/devkitpro2007/devkitarm/bin/../lib/gcc/arm-eabi/4.1.1/../../../../arm-eabi/lib\libc.a(lib_a-siscanf.o) (__svfiscanf_r)
c:/devkitpro2007/devkitarm/bin/../lib/gcc/arm-eabi/4.1.1/../../../../arm-eabi/lib\libc.a(lib_a-vfprintf.o)
                              c:/devkitpro2007/devkitarm/bin/../lib/gcc/arm-eabi/4.1.1/../../../../arm-eabi/lib\libc.a(lib_a-snprintf.o) (_vfprintf_r)
c:/devkitpro2007/devkitarm/bin/../lib/gcc/arm-eabi/4.1.1/../../../../arm-eabi/lib\libc.a(lib_a-vsnprintf.o)
                              ./fs.o (vsnprintf)
c:/devkitpro2007/devkitarm/bin/../lib/gcc/arm-eabi/4.1.1/../../../../arm-eabi/lib\libc.a(lib_a-wbuf.o)
                              c:/devkitpro2007/devkitarm/bin/../lib/gcc/arm-eabi/4.1.1/../../../../arm-eabi/lib\libc.a(lib_a-putc.o) (__swbuf_r)
c:/devkitpro2007/devkitarm/bin/../lib/gcc/arm-eabi/4.1.1/../../../../arm-eabi/lib\libc.a(lib_a-wcrtomb.o)
                              c:/devkitpro2007/devkitarm/bin/../lib/gcc/arm-eabi/4.1.1/../../../../arm-eabi/lib\libc.a(lib_a-vfiprintf.o) (_wcrtomb_r)
c:/devkitpro2007/devkitarm/bin/../lib/gcc/arm-eabi/4.1.1/../../../../arm-eabi/lib\libc.a(lib_a-wcsrtombs.o)
                              c:/devkitpro2007/devkitarm/bin/../lib/gcc/arm-eabi/4.1.1/../../../../arm-eabi/lib\libc.a(lib_a-vfiprintf.o) (_wcsrtombs_r)
c:/devkitpro2007/devkitarm/bin/../lib/gcc/arm-eabi/4.1.1/../../../../arm-eabi/lib\libc.a(lib_a-wctomb_r.o)
                              c:/devkitpro2007/devkitarm/bin/../lib/gcc/arm-eabi/4.1.1/../../../../arm-eabi/lib\libc.a(lib_a-wcrtomb.o) (_wctomb_r)
c:/devkitpro2007/devkitarm/bin/../lib/gcc/arm-eabi/4.1.1/../../../../arm-eabi/lib\libc.a(lib_a-writer.o)
                              c:/devkitpro2007/devkitarm/bin/../lib/gcc/arm-eabi/4.1.1/../../../../arm-eabi/lib\libc.a(lib_a-stdio.o) (_write_r)
c:/devkitpro2007/devkitarm/bin/../lib/gcc/arm-eabi/4.1.1/../../../../arm-eabi/lib\libc.a(lib_a-wsetup.o)
                              c:/devkitpro2007/devkitarm/bin/../lib/gcc/arm-eabi/4.1.1/../../../../arm-eabi/lib\libc.a(lib_a-fvwrite.o) (__swsetup)
c:/devkitpro2007/devkitarm/bin/../lib/gcc/arm-eabi/4.1.1/../../../../arm-eabi/lib\libc.a(lib_a-closer.o)
                              c:/devkitpro2007/devkitarm/bin/../lib/gcc/arm-eabi/4.1.1/../../../../arm-eabi/lib\libc.a(lib_a-stdio.o) (_close_r)
c:/devkitpro2007/devkitarm/bin/../lib/gcc/arm-eabi/4.1.1/../../../../arm-eabi/lib\libc.a(lib_a-dtoa.o)
                              c:/devkitpro2007/devkitarm/bin/../lib/gcc/arm-eabi/4.1.1/../../../../arm-eabi/lib\libc.a(lib_a-vfprintf.o) (_dtoa_r)
c:/devkitpro2007/devkitarm/bin/../lib/gcc/arm-eabi/4.1.1/../../../../arm-eabi/lib\libc.a(lib_a-flags.o)
                              c:/devkitpro2007/devkitarm/bin/../lib/gcc/arm-eabi/4.1.1/../../../../arm-eabi/lib\libc.a(lib_a-fopen.o) (__sflags)
c:/devkitpro2007/devkitarm/bin/../lib/gcc/arm-eabi/4.1.1/../../../../arm-eabi/lib\libc.a(lib_a-gdtoa-gethex.o)
                              c:/devkitpro2007/devkitarm/bin/../lib/gcc/arm-eabi/4.1.1/../../../../arm-eabi/lib\libc.a(lib_a-strtod.o) (__gethex)
c:/devkitpro2007/devkitarm/bin/../lib/gcc/arm-eabi/4.1.1/../../../../arm-eabi/lib\libc.a(lib_a-gdtoa-hexnan.o)
                              c:/devkitpro2007/devkitarm/bin/../lib/gcc/arm-eabi/4.1.1/../../../../arm-eabi/lib\libc.a(lib_a-strtod.o) (__hexnan)
c:/devkitpro2007/devkitarm/bin/../lib/gcc/arm-eabi/4.1.1/../../../../arm-eabi/lib\libc.a(lib_a-iswspace.o)
                              c:/devkitpro2007/devkitarm/bin/../lib/gcc/arm-eabi/4.1.1/../../../../arm-eabi/lib\libc.a(lib_a-vfiscanf.o) (iswspace)
c:/devkitpro2007/devkitarm/bin/../lib/gcc/arm-eabi/4.1.1/../../../../arm-eabi/lib\libc.a(lib_a-locale.o)
                              c:/devkitpro2007/devkitarm/bin/../lib/gcc/arm-eabi/4.1.1/../../../../arm-eabi/lib\libc.a(lib_a-vfprintf.o) (localeconv)
c:/devkitpro2007/devkitarm/bin/../lib/gcc/arm-eabi/4.1.1/../../../../arm-eabi/lib\libc.a(lib_a-lseekr.o)
                              c:/devkitpro2007/devkitarm/bin/../lib/gcc/arm-eabi/4.1.1/../../../../arm-eabi/lib\libc.a(lib_a-stdio.o) (_lseek_r)
c:/devkitpro2007/devkitarm/bin/../lib/gcc/arm-eabi/4.1.1/../../../../arm-eabi/lib\libc.a(lib_a-mbrtowc.o)
                              c:/devkitpro2007/devkitarm/bin/../lib/gcc/arm-eabi/4.1.1/../../../../arm-eabi/lib\libc.a(lib_a-vfiscanf.o) (_mbrtowc_r)
c:/devkitpro2007/devkitarm/bin/../lib/gcc/arm-eabi/4.1.1/../../../../arm-eabi/lib\libc.a(lib_a-mbtowc_r.o)
                              c:/devkitpro2007/devkitarm/bin/../lib/gcc/arm-eabi/4.1.1/../../../../arm-eabi/lib\libc.a(lib_a-mbrtowc.o) (_mbtowc_r)
c:/devkitpro2007/devkitarm/bin/../lib/gcc/arm-eabi/4.1.1/../../../../arm-eabi/lib\libc.a(lib_a-mprec.o)
                              c:/devkitpro2007/devkitarm/bin/../lib/gcc/arm-eabi/4.1.1/../../../../arm-eabi/lib\libc.a(lib_a-strtod.o) (_Bfree)
c:/devkitpro2007/devkitarm/bin/../lib/gcc/arm-eabi/4.1.1/../../../../arm-eabi/lib\libc.a(lib_a-readr.o)
                              c:/devkitpro2007/devkitarm/bin/../lib/gcc/arm-eabi/4.1.1/../../../../arm-eabi/lib\libc.a(lib_a-stdio.o) (_read_r)
c:/devkitpro2007/devkitarm/bin/../lib/gcc/arm-eabi/4.1.1/../../../../arm-eabi/lib\libc.a(lib_a-s_isinfd.o)
                              c:/devkitpro2007/devkitarm/bin/../lib/gcc/arm-eabi/4.1.1/../../../../arm-eabi/lib\libc.a(lib_a-vfprintf.o) (__isinfd)
c:/devkitpro2007/devkitarm/bin/../lib/gcc/arm-eabi/4.1.1/../../../../arm-eabi/lib\libc.a(lib_a-s_isnand.o)
                              c:/devkitpro2007/devkitarm/bin/../lib/gcc/arm-eabi/4.1.1/../../../../arm-eabi/lib\libc.a(lib_a-strtod.o) (__isnand)
c:/devkitpro2007/devkitarm/bin/../lib/gcc/arm-eabi/4.1.1/../../../../arm-eabi/lib\libc.a(lib_a-sccl.o)
                              c:/devkitpro2007/devkitarm/bin/../lib/gcc/arm-eabi/4.1.1/../../../../arm-eabi/lib\libc.a(lib_a-vfiscanf.o) (__sccl)
c:/devkitpro2007/devkitarm/bin/../lib/gcc/arm-eabi/4.1.1/../../../../arm-eabi/lib\libc.a(lib_a-sf_nan.o)
                              c:/devkitpro2007/devkitarm/bin/../lib/gcc/arm-eabi/4.1.1/../../../../arm-eabi/lib\libc.a(lib_a-strtod.o) (nanf)
c:/devkitpro2007/devkitarm/bin/../lib/gcc/arm-eabi/4.1.1/../../../../arm-eabi/lib\libc.a(lib_a-ungetc.o)
                              c:/devkitpro2007/devkitarm/bin/../lib/gcc/arm-eabi/4.1.1/../../../../arm-eabi/lib\libc.a(lib_a-vfiscanf.o) (ungetc)
c:/devkitpro2007/devkitarm/bin/../lib/gcc/arm-eabi/4.1.1/../../../../arm-eabi/lib\libc.a(lib_a-callocr.o)
                              c:/devkitpro2007/devkitarm/bin/../lib/gcc/arm-eabi/4.1.1/../../../../arm-eabi/lib\libc.a(lib_a-mprec.o) (_calloc_r)
c:/devkitpro2007/devkitarm/bin/../lib/gcc/arm-eabi/4.1.1\libgcc.a(_muldivdf3.o)
                              c:/devkitpro2007/devkitarm/bin/../lib/gcc/arm-eabi/4.1.1/../../../../arm-eabi/lib\libc.a(lib_a-strtod.o) (__aeabi_dmul)
c:/devkitpro2007/devkitarm/bin/../lib/gcc/arm-eabi/4.1.1\libgcc.a(_cmpdf2.o)
                              c:/devkitpro2007/devkitarm/bin/../lib/gcc/arm-eabi/4.1.1/../../../../arm-eabi/lib\libc.a(lib_a-strtod.o) (__aeabi_dcmpeq)
c:/devkitpro2007/devkitarm/bin/../lib/gcc/arm-eabi/4.1.1\libgcc.a(_fixdfsi.o)
                              c:/devkitpro2007/devkitarm/bin/../lib/gcc/arm-eabi/4.1.1/../../../../arm-eabi/lib\libc.a(lib_a-strtod.o) (__aeabi_d2iz)
c:/devkitpro2007/devkitarm/bin/../lib/gcc/arm-eabi/4.1.1\libgcc.a(_fixunsdfsi.o)
                              c:/devkitpro2007/devkitarm/bin/../lib/gcc/arm-eabi/4.1.1/../../../../arm-eabi/lib\libc.a(lib_a-strtod.o) (__aeabi_d2uiz)
c:/devkitpro2007/devkitarm/bin/../lib/gcc/arm-eabi/4.1.1/../../../../arm-eabi/lib\libsysbase.a(iosupport.o)
                              c:/devkitPro2007/libnds/lib\libfat.a(libfat.o) (AddDevice)
c:/devkitpro2007/devkitarm/bin/../lib/gcc/arm-eabi/4.1.1/../../../../arm-eabi/lib\libsysbase.a(close.o)
                              c:/devkitpro2007/devkitarm/bin/../lib/gcc/arm-eabi/4.1.1/../../../../arm-eabi/lib\libc.a(lib_a-sysclose.o) (_close)
c:/devkitpro2007/devkitarm/bin/../lib/gcc/arm-eabi/4.1.1/../../../../arm-eabi/lib\libsysbase.a(fstat.o)
                              c:/devkitpro2007/devkitarm/bin/../lib/gcc/arm-eabi/4.1.1/../../../../arm-eabi/lib\libc.a(lib_a-fstatr.o) (_fstat)
c:/devkitpro2007/devkitarm/bin/../lib/gcc/arm-eabi/4.1.1/../../../../arm-eabi/lib\libsysbase.a(isatty.o)
                              c:/devkitpro2007/devkitarm/bin/../lib/gcc/arm-eabi/4.1.1/../../../../arm-eabi/lib\libc.a(lib_a-makebuf.o) (isatty)
c:/devkitpro2007/devkitarm/bin/../lib/gcc/arm-eabi/4.1.1/../../../../arm-eabi/lib\libsysbase.a(lseek.o)
                              c:/devkitpro2007/devkitarm/bin/../lib/gcc/arm-eabi/4.1.1/../../../../arm-eabi/lib\libc.a(lib_a-syslseek.o) (_lseek)
c:/devkitpro2007/devkitarm/bin/../lib/gcc/arm-eabi/4.1.1/../../../../arm-eabi/lib\libsysbase.a(open.o)
                              c:/devkitpro2007/devkitarm/bin/../lib/gcc/arm-eabi/4.1.1/../../../../arm-eabi/lib\libc.a(lib_a-openr.o) (_open)
c:/devkitpro2007/devkitarm/bin/../lib/gcc/arm-eabi/4.1.1/../../../../arm-eabi/lib\libsysbase.a(read.o)
                              c:/devkitpro2007/devkitarm/bin/../lib/gcc/arm-eabi/4.1.1/../../../../arm-eabi/lib\libc.a(lib_a-sysread.o) (_read)
c:/devkitpro2007/devkitarm/bin/../lib/gcc/arm-eabi/4.1.1/../../../../arm-eabi/lib\libsysbase.a(sbrk.o)
                              c:/devkitpro2007/devkitarm/bin/../lib/gcc/arm-eabi/4.1.1/../../../../arm-eabi/lib\libc.a(lib_a-sbrkr.o) (_sbrk)
c:/devkitpro2007/devkitarm/bin/../lib/gcc/arm-eabi/4.1.1/../../../../arm-eabi/lib\libsysbase.a(write.o)
                              c:/devkitpro2007/devkitarm/bin/../lib/gcc/arm-eabi/4.1.1/../../../../arm-eabi/lib\libc.a(lib_a-writer.o) (_write)
c:/devkitpro2007/devkitarm/bin/../lib/gcc/arm-eabi/4.1.1/../../../../arm-eabi/lib\libsysbase.a(malloc_vars.o)
                              c:/devkitpro2007/devkitarm/bin/../lib/gcc/arm-eabi/4.1.1/../../../../arm-eabi/lib/ds_arm9_crt0.o (fake_heap_end)
c:/devkitpro2007/devkitarm/bin/../lib/gcc/arm-eabi/4.1.1/../../../../arm-eabi/lib\libsysbase.a(chdir.o)
                              ./fs.o (chdir)
c:/devkitpro2007/devkitarm/bin/../lib/gcc/arm-eabi/4.1.1/../../../../arm-eabi/lib\libsysbase.a(dir.o)
                              ./fs.o (dirreset)

Allocating common symbols
Common symbol       size              file

ToUpdate2b          0xc8              ./ppu.o
CPU                 0x58              ./SNES_global.o
screen_mode         0x4               ./main.o
bittab8             0x40              ./ppu.o
NeedFlush4b         0x4               ./ppu.o
interrupted         0x1               ./engine.o
errno               0x4               c:/devkitpro2007/devkitarm/bin/../lib/gcc/arm-eabi/4.1.1/../../../../arm-eabi/lib\libc.a(lib_a-reent.o)
NeedUpdate2b        0x4               ./ppu.o
NeedUpdate4b        0x4               ./ppu.o
CFG                 0x164             ./SNES_global.o
mouse_cur_b         0x4               ./input.o
__hexdig            0x100             c:/devkitpro2007/devkitarm/bin/../lib/gcc/arm-eabi/4.1.1/../../../../arm-eabi/lib\libc.a(lib_a-gdtoa-gethex.o)
TileZones           0x80              ./ppu.o
GFX                 0x4cb8            ./SNES_global.o
SPC700_emu          0x4               ./core.o
logbuf              0x7d00            ./fs.o
GUI                 0x34              ./gui.o
SNES                0x30c0            ./SNES_global.o
extlink             0x1210            ./main.o
ToUpdate4b          0xc8              ./ppu.o
NeedFlush2b         0x4               ./ppu.o
PendingMessage      0x10              ./gui.o
g_printfbuf         0x64              ./gui.o
Mode7TileZone       0x4               ./ppu.o
APU                 0x14              ./SNES_global.o
keys                0x4               ./main.o
scr_main            0x4               ./snemul_gui.o
OldPC               0x4               ./engine.o
SNESToDS_TileAddress
                    0x80              ./ppu.o

Memory Configuration

Name             Origin             Length             Attributes
rom              0x08000000         0x02000000
ewram            0x02000000         0x003ef000
shared_ewram     0x023ef000         0x0000f000
dtcm             0x0b000000         0x00004000
itcm             0x01000000         0x00008000
*default*        0x00000000         0xffffffff

Linker script and memory map

                0x01000000                __itcm_start = 0x1000000
                0x023ef000                __ewram_end = 0x23ef000
                0x023ef000                __eheap_end = 0x23ef000
                0x0b000000                __dtcm_start = 0xb000000
                0x0b004000                __dtcm_top = 0xb004000
                0x0b003ff8                __irq_flags = (__dtcm_top - 0x8)
                0x0b003ffc                __irq_vector = (__dtcm_top - 0x4)
                0x023ef000                __shwram_start = 0x23ef000
                0x023fe000                __shwram_end = 0x23fe000
                0x0b003f00                __sp_svc = (__dtcm_top - 0x100)
                0x0b003e00                __sp_irq = (__sp_svc - 0x100)
                0x0b003d00                __sp_usr = (__sp_irq - 0x100)

.init           0x02000000      0x238
                0x02000000                __text_start = .
 *(.init)
 .init          0x02000000      0x220 c:/devkitpro2007/devkitarm/bin/../lib/gcc/arm-eabi/4.1.1/../../../../arm-eabi/lib/ds_arm9_crt0.o
                0x02000000                _start
 .init          0x02000220        0xc c:/devkitpro2007/devkitarm/bin/../lib/gcc/arm-eabi/4.1.1/crti.o
                0x02000220                _init
 .init          0x0200022c        0xc c:/devkitpro2007/devkitarm/bin/../lib/gcc/arm-eabi/4.1.1/crtn.o
                0x02000238                . = ALIGN (0x4)

.plt
 *(.plt)

.text           0x02000240    0x32290
 *(EXCLUDE_FILE(*.itcm*) .text)
 .text          0x02000240        0x0 c:/devkitpro2007/devkitarm/bin/../lib/gcc/arm-eabi/4.1.1/../../../../arm-eabi/lib/ds_arm9_crt0.o
 .text          0x02000240        0x0 c:/devkitpro2007/devkitarm/bin/../lib/gcc/arm-eabi/4.1.1/crti.o
 .text          0x02000240       0xa4 c:/devkitpro2007/devkitarm/bin/../lib/gcc/arm-eabi/4.1.1/crtbegin.o
 .text          0x020002e4        0x0 ./SNES_global.o
 .text          0x020002e4      0x1c8 ./apu.o
                0x0200044c                APU_saveSpc
                0x020002e4                ARM7_fifo_init
                0x0200037c                APU_clear
                0x020002fc                SendArm7Command
                0x020003a8                APU_playSong
                0x02000340                APU_stop
                0x020003a4                APU_command
                0x02000374                APU_playSpc
                0x0200048c                APU_nice_reset
                0x02000330                APU_reset
                0x0200040c                APU_loadSpc
                0x02000338                APU_pause
 .text          0x020004ac     0x16a8 ./conf.o
                0x02001280                get_config_int
                0x02000b6c                set_config_string
                0x020004b0                get_config_text
                0x02000868                is_section_exists
                0x02001a00                override_config_data
                0x020005f0                find_config_section_with_string
                0x020011d0                get_config_oct
                0x02001a30                save_config_file
                0x02000ec4                set_config_hex
                0x02000f18                set_config_int
                0x02001a18                set_config_data
                0x02000e5c                set_config_oct
                0x020004ac                _load_config_text
                0x0200120c                get_config_hex
                0x02001080                hook_config_section
                0x02000f54                get_config_argv
                0x020014bc                pop_config_state
                0x02001b2c                override_config_file
                0x02000e10                set_config_float
                0x0200091c                get_config_string
                0x02000a58                config_is_hooked
                0x020014fc                push_config_state
                0x020006e8                find_config_section_with_hex
                0x02001190                get_config_float
                0x02001b40                set_config_file
                0x02001a40                file_size
 .text          0x02001b54     0x1478 ./core.o
                0x02001c28                W2141
                0x02001e54                WW210F
                0x020021c8                read_mouse
                0x02002318                update_joypads
                0x02002088                GoIRQ
                0x02001e14                WW210D
                0x02001eb4                WW2112
                0x02001ee4                WW2114
                0x02002960                PPU_fastDMA_2118_1
                0x020023cc                WW2122
                0x02002c2c                DMA_transfert
                0x02001ccc                W2142
                0x02001b84                W2140
                0x02002118                GoNMI
                0x02001d70                W2143
                0x02001b54                pseudoSleep
                0x02001ef4                read_scope
                0x02001e34                WW210E
                0x02001e74                WW2110
                0x02002180                read_joypads
                0x02001fdc                SNES_update
                0x02002478                HDMA_transfert
                0x02001e94                WW2111
                0x02001ed4                WW2113
 .text          0x02002fcc       0xe0 ./crc32.o
                0x02002fcc                init_crc_table
                0x02003018                crc32
 .text          0x020030ac     0x30d4 ./engine.o
                0x0200315c                trace_CPUFast
                0x02005d58                trace_CPU
                0x02003104                readSRAM
                0x02005fe8                saveSRAM
                0x020031c4                show_opcode
                0x02006050                loadSRAM
                0x020030ac                writeSRAM
                0x02005f30                initSNESEmpty
                0x020060bc                changeROM
 .text          0x02006180      0x99c ./fs.o
                0x020068b4                FS_getDirectoryList
                0x02006ab8                FS_chdir
                0x02006764                FS_printlog
                0x02006208                FS_init
                0x020065a8                FS_saveFile
                0x02006310                FS_lock
                0x02006180                FS_shouldFreeROM
                0x02006188                FS_printlogBufOnly
                0x02006690                FS_getFileSize
                0x02006adc                FS_extram_init
                0x020066e4                FS_loadROM
                0x020063b4                FS_loadROMInExtRAM
                0x02006518                FS_loadROMForPaging
                0x0200621c                FS_getFileName
                0x020062f8                FS_unlock
                0x0200686c                FS_flog
                0x02006270                _FS_getFileExtension
                0x02006328                FS_loadROMPage
                0x020065fc                FS_loadFile
 .text          0x02006b1c     0x2d8c ./snemul_gui.o
                0x02009308                ROMSelectorHandler
                0x02006fa0                GUI_align_printf
                0x02009480                GUI_setObjFromConfig
                0x02008b30                ScreenOptionsHandler
                0x02006b1c                LayerOptionsUpdate
                0x0200743c                buildOptionsMenu
                0x02007af4                buildLayersMenu
                0x020089bc                OptionsHandler
                0x02009430                GUI_getConfigStr
                0x02007860                buildScreenMenu
                0x02007204                GUI_buildChoice
                0x020081a8                MainScreenHandler
                0x02006f4c                FirstROMSelectorHandler
                0x02008520                buildGFXConfigMenu
                0x0200926c                SPCSelectorHandler
                0x02007198                GUI_getConfig
                0x0200725c                GUI_buildRStatic
                0x02008ed0                GFXConfigHandler
                0x02009180                LoadStateHandler
                0x02006c78                GUI_setLanguage
                0x02009608                buildMainMenu
                0x02008e10                AdvancedHandler
                0x02007350                GUI_deleteROMSelector
                0x020080b8                GUI_createMainMenu
                0x020070d8                GUI_showROMInfos
                0x02007e78                buildMenu
                0x02009758                SaveStateHandler
                0x020072b0                GUI_buildLStatic
                0x02008c44                LayersOptionsHandler
                0x02007038                GUI_printf
                0x02006f20                GUI_clear
                0x02007304                GUI_buildCStatic
                0x02007378                GUI_getROM
                0x020093e0                GUI_getConfigInt
 *fill*         0x020098a8        0x8 ff
 .text          0x020098b0       0xd0 ./intr.o
                0x02009944                DesMuMeDebug
                0x020098b0                initMem
 .text          0x02009980     0x11ec ./main.o
                0x02009c38                saveOptionsToConfig
                0x0200aa80                unpackOptions
                0x02009d40                readOptionsFromConfig
                0x0200a524                main
                0x02009980                PPU_ChangeLayerConf
                0x0200aa2c                applyOptions
                0x02009b54                selectSong
                0x0200a330                loadROM
                0x0200a204                checkConfiguration
                0x020099dc                packOptions
                0x02009ab8                exception_handler
 .text          0x0200ab6c      0xb38 ./memmap.o
                0x0200b130                InitHiROMMap
                0x0200b5c0                InitMap
                0x0200b544                mem_init_paging
                0x0200ab6c                WriteProtectROM
                0x0200b428                map_memory
                0x0200ac08                MapRAM
                0x0200abc8                FixMap
                0x0200b4d0                mem_getbaseaddress
                0x0200acac                InitLoROMMap
                0x0200b664                mem_clear_paging
 .text          0x0200b6a4      0x350 ./opcodes.o
                0x0200b814                CPU_unpack
                0x0200b984                CPU_goto
                0x0200b6a4                CPU_pack
 .text          0x0200b9f4        0x0 ./opcodes2.o
 .text          0x0200b9f4     0x3cc0 ./ppu.o
                0x0200d42c                PPU_setBackColor
                0x0200d438                PPU_line_handle_BG3
                0x0200bbf0                PPU_allocate_tilezone2
                0x0200e6c8                draw_plane_64_30
                0x0200ea14                renderMode3
                0x0200b9f4                init_render
                0x0200da04                PPU_setPalette
                0x0200eb34                renderMode1
                0x0200ba94                PPU_get_bgmode
                0x0200c2b0                draw_plane_withpriority
                0x0200bec8                PPU_AddTile2InCache
                0x0200bc48                add_tile_2
                0x0200bb58                PPU_allocate_tilezone
                0x0200ba90                check_tile_addr
                0x0200e388                draw_plane_64_60
                0x0200d380                renderMode7
                0x0200d188                PPU_RenderLineMode3
                0x0200ed3c                draw_screen
                0x0200c7c8                draw_sprites
                0x0200c680                map_duplicate4
                0x0200bd48                add_tile_8
                0x0200bb18                PPU_get_tile_address
                0x0200da80                PPU_add_tile_address
                0x0200d238                PPU_RenderLineMode7
                0x0200e55c                draw_plane_32_60
                0x0200d638                PPU_line_render_scaled
                0x0200c740                draw_tile_sprite
                0x0200f188                PPU_line_render
                0x0200cdf8                PPU_RenderLineMode1
                0x0200e104                check_sprite_addr
                0x0200bb98                PPU_get_most_used
                0x0200efdc                PPU_setScreen
                0x0200c200                update_scroll
                0x0200bcb8                add_tile_4
                0x0200c5f0                map_duplicate2
                0x0200e880                draw_plane_32_30
                0x0200f0b4                PPU_update
                0x0200c764                PPU_set_sprites_bank
                0x0200e1c8                PPU_reset
                0x0200de24                PPU_updateCache
                0x0200c584                map_duplicate
                0x0200bf98                PPU_AddTile4InCache
                0x0200c11c                PPU_setMap
                0x0200c068                add_sprite_tile_4
 .text          0x0200f6b4      0x630 ./snapshot.o
                0x0200fc14                get_snapshot_name
                0x0200f6b4                write_snapshot
                0x0200f974                read_snapshot
 .text          0x0200fce4      0x940 ./snes.o
                0x02010258                reset_CPU
                0x0200fee4                load_ROM
                0x0200fd18                UnInterleaveROM
                0x0201018c                reset_GFX
                0x0200fce4                cnt_alphachar
                0x02010364                reset_SNES
                0x02010620                init_GFX
 .text          0x02010624      0x490 ./touch.o
                0x0201072c                ADC_to_SCR
                0x02010a70                superTouchReadXY
                0x02010624                PrecalculateCalibrationData
                0x02010820                mytouchReadXY
 .text          0x02010ab4     0x10f0 ./gui.o
                0x02011924                GUI_console_printf
                0x02010b74                GUI_sendMessage
                0x02011098                GUI_newImageList
                0x02010ac4                GUI_drawVLine
                0x020115c4                GUI_newScreen
                0x02011324                GUI_update
                0x02010fc8                GUI_drawScreen
                0x02011654                GUI_drawBar
                0x02010cc4                GUI_clearFocus
                0x02010c58                GUI_setFocus
                0x02011610                GUI_clearScreen
                0x02011564                GUI_setZone
                0x02010bc8                GUI_dispatchMessageNow
                0x02011984                LOG
                0x02011808                GUI_drawImage
                0x020119dc                GUI_deleteImage
                0x02011ab0                GUI_loadImage
                0x020110bc                GUI_init
                0x02011070                GUI_switchScreen
                0x02011790                GUI_drawRect
                0x02010d04                GUI_dispatchEvent
                0x02011528                GUI_start
                0x020119e0                GUI_loadPalette
                0x02011b6c                GUI_addImage
                0x02010ab4                GUI_linkObject
                0x02011718                GUI_drawHLine
                0x02010c40                GUI_dispatchMessage
 .text          0x02011ba4      0x840 ./gui_font.o
                0x02011c64                GUI_getFontHeight
                0x020121a0                GUI_drawAlignText
                0x02011c74                GUI_getZoneTextHeight
                0x02011c98                GUI_getStrWidth
                0x02011d84                GUI_drawVChar
                0x0201207c                GUI_drawText
 .text          0x020123e4      0xf28 ./gui_widgets.o
                0x02012964                GUIScrollBar_handler
                0x02012640                GUI_newSelector
                0x02012480                GUI_setItem
                0x02012fc0                GUIStrButton_handler
                0x02012420                GUI_deleteList
                0x020128dc                GUIStaticEx_handler
                0x020124c8                GUI_newList
                0x020123e4                GUISelector_getSelected
                0x02012edc                GUIChoiceButton_handler
                0x02012bd8                GUIButton_handler
                0x02012874                GUIStatic_handler
                0x02012804                GUIImage_handler
                0x020124a0                GUI_linkStrButton
                0x02012e34                GUIImgButton_handler
                0x02012448                GUI_deleteSelector
                0x02013048                GUIList_handler
 .text          0x0201330c        0x0 ./katakana_12.o
 .text          0x0201330c        0x0 ./smallfont_7.o
 .text          0x0201330c        0x0 ./trebuchet_9.o
 .text          0x0201330c      0x488 ./input.o
                0x02013354                get_joypad
                0x02013318                myLCDSwap
                0x0201330c                setBacklight
 .text          0x02013794      0x9e0 ./ram.o
                0x02013a38                _opera_unlock
                0x02013d00                ram_unlock
                0x02013c58                _ez_unlock
                0x020137bc                _sc_lock
                0x02013d50                ram_init
                0x02014128                ram_lock
                0x020137e0                _m3_unlock
                0x02013a64                _g6_unlock
                0x02013c60                _ez_lock
                0x02013cf0                ram_size
                0x02013b60                _g6_lock
                0x02013a50                _opera_lock
                0x02013cc4                ram_type
                0x02013794                _sc_unlock
                0x02013cd4                ram_type_string
                0x02013910                _m3_lock
 .text          0x02014174        0x0 ./snemul_str_cat.o
 .text          0x02014174        0x0 ./snemul_str_dan.o
 .text          0x02014174        0x0 ./snemul_str_eng.o
 .text          0x02014174        0x0 ./snemul_str_fr.o
 .text          0x02014174        0x0 ./snemul_str_ger.o
 .text          0x02014174        0x0 ./snemul_str_ita.o
 .text          0x02014174        0x0 ./snemul_str_jpn.o
 .text          0x02014174        0x0 ./snemul_str_nl.o
 .text          0x02014174        0x0 ./snemul_str_pol.o
 .text          0x02014174        0x0 ./snemul_str_pt.o
 .text          0x02014174        0x0 ./snemul_str_spa.o
 .text          0x02014174       0x9c c:/devkitPro2007/libnds/lib\libfat.a(libfat.o)
                0x02014174                fatSetDefaultInterface
                0x02014198                fatMountCustomInterface
                0x02014180                fatUnsafeUnmount
                0x020141a4                fatMountNormalInterface
                0x0201418c                fatUnmount
                0x02014200                fatInitDefault
                0x020141b0                fatInit
 .text          0x02014210      0x4d0 c:/devkitPro2007/libnds/lib\libfat.a(partition.o)
                0x0201425c                _FAT_partition_getPartitionFromPath
                0x02014234                _FAT_partition_setDefaultPartition
                0x02014614                _FAT_partition_mountCustomInterface
                0x02014338                _FAT_partition_unmount
                0x02014674                _FAT_partition_mount
                0x02014210                _FAT_partition_setDefaultInterface
                0x020142d8                _FAT_partition_unsafeUnmount
 .text          0x020146e0       0xb8 c:/devkitPro2007/libnds/lib\libfat.a(disc.o)
                0x0201475c                _FAT_disc_findInterface
                0x0201471c                _FAT_disc_dsSlotFindInterface
                0x020146e0                _FAT_disc_gbaSlotFindInterface
 .text          0x02014798       0x1c c:/devkitPro2007/libnds/lib\libfat.a(io_m3cf.o)
                0x02014798                _M3CF_startup
 .text          0x020147b4      0x528 c:/devkitPro2007/libnds/lib\libfat.a(io_m3sd.o)
                0x02014b5c                _M3SD_clearStatus
                0x02014930                _M3SD_cmd_17byte_response
                0x02014a34                _M3SD_readSectors
                0x020149f8                _M3SD_isInserted
                0x02014b80                _M3SD_writeSectors
                0x02014ac0                _M3SD_shutdown
                0x02014918                _M3SD_cmd_6byte_response
                0x02014b68                _M3SD_startUp
 .text          0x02014cdc       0x14 c:/devkitPro2007/libnds/lib\libfat.a(io_mpcf.o)
                0x02014cdc                _MPCF_startup
 .text          0x02014cf0      0x92c c:/devkitPro2007/libnds/lib\libfat.a(io_njsd.o)
                0x020150fc                _NJSD_writeSectors
                0x020150e4                _NJSD_clearStatus
                0x02015088                _NJSD_cmd_6byte_response
                0x020150b8                _NJSD_isInserted
                0x0201538c                _NJSD_startup
                0x020150f0                _NJSD_shutdown
                0x02015428                _NJSD_readSectors
                0x020150a0                _NJSD_cmd_17byte_response
 .text          0x0201561c      0x694 c:/devkitPro2007/libnds/lib\libfat.a(io_nmmc.o)
                0x02015804                _NMMC_isInserted
                0x02015938                _NMMC_writeSectors
                0x02015ad8                _NMMC_startUp
                0x020157f8                _NMMC_shutdown
                0x0201577c                _NMMC_clearStatus
                0x02015860                _NMMC_readSectors
 .text          0x02015cb0       0x18 c:/devkitPro2007/libnds/lib\libfat.a(io_sccf.o)
                0x02015cb0                _SCCF_startup
 .text          0x02015cc8      0x388 c:/devkitPro2007/libnds/lib\libfat.a(io_scsd.o)
                0x02015dd0                _SCSD_shutdown
                0x02015f48                _SCSD_startUp
                0x02015ec0                _SCSD_isInserted
                0x02015f3c                _SCSD_clearStatus
                0x02015f5c                _SCSD_cmd_17byte_response
                0x02015f74                _SCSD_cmd_6byte_response
                0x02015e50                _SCSD_readSectors
                0x02015f8c                _SCSD_writeSectors
 .text          0x02016050      0x258 c:/devkitPro2007/libnds/lib\libfat.a(io_sd_common.o)
                0x02016050                _SD_CRC7
                0x020160ac                _SD_CRC16
                0x020161a8                _SD_InitCard
 *fill*         0x020162a8       0x18 ff
 .text          0x020162c0     0x8000 c:/devkitPro2007/libnds/lib\libfat.a(io_dldi.o)
                0x02016320                _io_dldi
 .text          0x0201e2c0       0xc0 c:/devkitPro2007/libnds/lib\libfat.a(io_scsd_s.o)
                0x0201e2c0                _SCSD_writeData_s
 .text          0x0201e380      0x2c0 c:/devkitPro2007/libnds/lib\libfat.a(cache.o)
                0x0201e444                _FAT_cache_flush
                0x0201e520                _FAT_cache_writePartialSector
                0x0201e490                _FAT_cache_invalidate
                0x0201e5a8                _FAT_cache_destructor
                0x0201e5c4                _FAT_cache_constructor
                0x0201e56c                _FAT_cache_readPartialSector
                0x0201e4bc                _FAT_cache_eraseWritePartialSector
 .text          0x0201e640      0x708 c:/devkitPro2007/libnds/lib\libfat.a(fatdir.o)
                0x0201e6f8                _FAT_stat_r
                0x0201e65c                _FAT_dirnext_r
                0x0201e7e0                _FAT_unlink_r
                0x0201e9cc                _FAT_rename_r
                0x0201e640                _FAT_link_r
                0x0201e64c                _FAT_dirclose_r
                0x0201e770                _FAT_chdir_r
                0x0201e6c4                _FAT_dirreset_r
                0x0201e928                _FAT_diropen_r
                0x0201eb4c                _FAT_mkdir_r
 .text          0x0201ed48      0xc28 c:/devkitPro2007/libnds/lib\libfat.a(fatfile.o)
                0x0201f4c8                _FAT_write_r
                0x0201edb8                _FAT_seek_r
                0x0201f280                _FAT_read_r
                0x0201efc8                _FAT_open_r
                0x0201eee8                _FAT_close_r
                0x0201ed48                _FAT_fstat_r
 .text          0x0201f970      0x398 c:/devkitPro2007/libnds/lib\libfat.a(file_allocation_table.o)
                0x0201fbcc                _FAT_fat_clearLinks
                0x0201f970                _FAT_fat_nextCluster
                0x0201fca0                _FAT_fat_linkFreeClusterCleared
                0x0201fc1c                _FAT_fat_linkFreeCluster
                0x0201fa58                _FAT_fat_lastCluster
 .text          0x0201fd08       0xdc c:/devkitPro2007/libnds/lib\libfat.a(filetime.o)
                0x0201fd54                _FAT_filetime_getDateFromRTC
                0x0201fd98                _FAT_filetime_to_time_t
                0x0201fd08                _FAT_filetime_getTimeFromRTC
 .text          0x0201fde4      0x30c c:/devkitPro2007/libnds/lib\libfat.a(io_cf_common.o)
                0x0201fde4                _CF_isInserted
                0x0201ff78                _CF_writeSectors
                0x0201fe6c                _CF_readSectors
                0x020200a0                _CF_startup
                0x0201fe04                _CF_clearStatus
                0x02020094                _CF_shutdown
 .text          0x020200f0       0xa0 c:/devkitPro2007/libnds/lib\libfat.a(io_m3_common.o)
                0x020200f4                _M3_changeMode
 .text          0x02020190       0x18 c:/devkitPro2007/libnds/lib\libfat.a(io_sc_common.o)
                0x02020190                _SC_changeMode
 .text          0x020201a8      0xec8 c:/devkitPro2007/libnds/lib\libfat.a(directory.o)
                0x02020708                _FAT_directory_chdir
                0x020209f0                _FAT_directory_entryStat
                0x02020738                _FAT_directory_isValidAlias
                0x02020930                _FAT_directory_removeEntry
                0x02020234                _FAT_directory_getRootEntry
                0x02020820                _FAT_directory_entryFromPosition
                0x02020300                _FAT_directory_getNextEntry
                0x020204c4                _FAT_directory_getFirstEntry
                0x020207d4                _FAT_directory_isValidLfn
                0x0202021c                _FAT_directory_entryGetCluster
                0x02020abc                _FAT_directory_addEntry
                0x0202057c                _FAT_directory_entryFromPath
 .text          0x02021070      0x580 c:/devkitPro2007/libnds/lib\libnds9.a(console.o)
                0x020213ec                con_write
                0x0202121c                consoleInit
                0x020210d8                consolePrintChar
                0x02021208                consoleClear
                0x020213a4                consoleDemoInit
                0x02021380                consoleInitDefault
 .text          0x020215f0      0x100 c:/devkitPro2007/libnds/lib\libnds9.a(keys.o)
                0x02021620                keysSetRepeat
                0x02021610                keysDownRepeat
                0x020215f0                keysHeld
                0x02021644                keysUp
                0x020215fc                keysDown
                0x0202165c                scanKeys
 .text          0x020216f0      0x110 c:/devkitPro2007/libnds/lib\libnds9.a(video.o)
                0x020217b0                vramSetBankF
                0x02021740                vramRestoreMainBanks
                0x020217d8                vramSetBankH
                0x02021788                vramSetBankD
                0x0202179c                vramSetBankE
                0x020217c4                vramSetBankG
                0x02021734                vramRestorMainBanks
                0x02021760                vramSetBankB
                0x02021774                vramSetBankC
                0x020217ec                vramSetBankI
                0x020216f0                vramSetMainBanks
                0x0202174c                vramSetBankA
 .text          0x02021800      0x670 c:/devkitPro2007/libnds/lib\libnds9.a(card.o)
                0x020219e0                cardEepromGetType
                0x02021864                cardStartTransfer
                0x02021908                cardReadHeader
                0x02021a6c                cardReadEeprom
                0x02021924                cardReadID
                0x02021cc0                cardEepromGetSize
                0x020218dc                cardRead00
                0x02021944                cardEepromCommand
                0x02021e1c                cardEepromChipErase
                0x02021824                cardPolledTransfer
                0x02021b18                cardWriteEeprom
                0x020218ac                cardWriteAndRead
                0x02021800                cardWriteCommand
                0x02021d74                cardEepromSectorErase
                0x020219cc                cardEepromReadID
 .text          0x02021e70      0x208 c:/devkitPro2007/libnds/lib\libnds9.a(interrupts.o)
                0x02021fd8                irqEnable
                0x02021e74                irqSet
                0x0202202c                irqDisable
                0x02021edc                irqInit
                0x02021e70                irqDummy
                0x02021fa8                irqInitHandler
                0x02021f28                irqClear
 .text          0x02022078       0xd4 c:/devkitPro2007/libnds/lib\libnds9.a(exceptionHandler.o)
                0x02022078                getCPSR
                0x020220f4                exceptionRegisters
                0x02022080                enterException
                0x020220ec                exceptionC
                0x020220f0                exceptionStack
 *fill*         0x0202214c        0x4 ff
 .text          0x02022150       0x70 c:/devkitPro2007/libnds/lib\libnds9.a(biosCalls.o)
                0x02022160                swiSleep
                0x0202219a                swiDecompressLZSSVram
                0x02022182                swiFastCopy
                0x02022186                swiSqrt
                0x02022150                swiSoftReset
                0x0202218a                swiCRC16
                0x0202219e                swiDecompressHuffman
                0x020221b6                swiSetHaltCR
                0x0202216c                swiRemainder
                0x02022192                swiUnpackBits
                0x02022196                swiDecompressLZSSWram
                0x020221b2                swiDecodeDelta16
                0x02022154                swiDelay
                0x02022172                swiDivMod
                0x020221a6                swiDecompressRLEVram
                0x020221a2                swiDecompressRLEWram
                0x020221ae                swiDecodeDelta8
                0x02022168                swiDivide
                0x02022164                swiChangeSoundBias
                0x0202215c                swiWaitForVBlank
                0x02022158                swiIntrWait
                0x0202218e                swiIsDebugger
                0x020221aa                swiWaitForIRQ
                0x0202217e                swiCopy
 .text          0x020221c0        0x0 c:/devkitPro2007/libnds/lib\libnds9.a(interruptDispatcher.o)
 .text          0x020221c0        0x0 c:/devkitPro2007/libnds/lib\libnds9.a(default_font.o)
 .text          0x020221c0      0x114 c:/devkitpro2007/devkitarm/bin/../lib/gcc/arm-eabi/4.1.1\libgcc.a(_udivsi3.o)
                0x020221c0                __udivsi3
                0x020221c0                __aeabi_uidiv
                0x020222bc                __aeabi_uidivmod
 .text          0x020222d4      0x144 c:/devkitpro2007/devkitarm/bin/../lib/gcc/arm-eabi/4.1.1\libgcc.a(_divsi3.o)
                0x020222d4                __aeabi_idiv
                0x020222d4                __divsi3
                0x02022400                __aeabi_idivmod
 .text          0x02022418        0x4 c:/devkitpro2007/devkitarm/bin/../lib/gcc/arm-eabi/4.1.1\libgcc.a(_dvmd_tls.o)
                0x02022418                __aeabi_ldiv0
                0x02022418                __div0
                0x02022418                __aeabi_idiv0
 .text          0x0202241c       0x3c c:/devkitpro2007/devkitarm/bin/../lib/gcc/arm-eabi/4.1.1\libgcc.a(_call_via_rX.o)
                0x02022424                _call_via_r2
                0x02022434                _call_via_r6
                0x02022430                _call_via_r5
                0x02022428                _call_via_r3
                0x02022448                _call_via_fp
                0x0202243c                _call_via_r8
                0x02022438                _call_via_r7
                0x0202241c                _call_via_r0
                0x02022444                _call_via_sl
                0x02022450                _call_via_sp
                0x02022440                _call_via_r9
                0x0202242c                _call_via_r4
                0x02022420                _call_via_r1
                0x0202244c                _call_via_ip
                0x02022454                _call_via_lr
 .text          0x02022458      0x41c c:/devkitpro2007/devkitarm/bin/../lib/gcc/arm-eabi/4.1.1\libgcc.a(_addsubdf3.o)
                0x02022814                __floatdidf
                0x02022798                __floatsidf
                0x02022774                __aeabi_ui2d
                0x02022458                __aeabi_drsub
                0x020227c0                __extendsfdf2
                0x02022464                __adddf3
                0x02022774                __floatunsidf
                0x02022464                __aeabi_dadd
                0x02022800                __aeabi_ul2d
                0x02022460                __aeabi_dsub
                0x02022800                __floatundidf
                0x02022798                __aeabi_i2d
                0x02022814                __aeabi_l2d
                0x020227c0                __aeabi_f2d
                0x02022460                __subdf3
 .text          0x02022874       0xa0 c:/devkitpro2007/devkitarm/bin/../lib/gcc/arm-eabi/4.1.1\libgcc.a(_truncdfsf2.o)
                0x02022874                __aeabi_d2f
                0x02022874                __truncdfsf2
 .text          0x02022914       0x1c c:/devkitpro2007/devkitarm/bin/../lib/gcc/arm-eabi/4.1.1/../../../../arm-eabi/lib\libc.a(lib_a-atof.o)
                0x02022914                atof
 .text          0x02022930        0x0 c:/devkitpro2007/devkitarm/bin/../lib/gcc/arm-eabi/4.1.1/../../../../arm-eabi/lib\libc.a(lib_a-ctype_.o)
 .text          0x02022930      0x110 c:/devkitpro2007/devkitarm/bin/../lib/gcc/arm-eabi/4.1.1/../../../../arm-eabi/lib\libc.a(lib_a-fclose.o)
                0x02022930                _fclose_r
                0x02022a2c                fclose
 .text          0x02022a40      0x1b8 c:/devkitpro2007/devkitarm/bin/../lib/gcc/arm-eabi/4.1.1/../../../../arm-eabi/lib\libc.a(lib_a-fflush.o)
                0x02022a40                fflush
 .text          0x02022bf8      0x2bc c:/devkitpro2007/devkitarm/bin/../lib/gcc/arm-eabi/4.1.1/../../../../arm-eabi/lib\libc.a(lib_a-findfp.o)
                0x02022c64                __sinit
                0x02022d7c                __sfmoreglue
                0x02022d6c                _cleanup
                0x02022d4c                _cleanup_r
                0x02022d20                __fp_lock_all
                0x02022c54                __sfp_lock_acquire
                0x02022dcc                __sfp
                0x02022c60                __sinit_lock_release
                0x02022cf4                __fp_unlock_all
                0x02022c58                __sfp_lock_release
                0x02022c5c                __sinit_lock_acquire
 .text          0x02022eb4       0xfc c:/devkitpro2007/devkitarm/bin/../lib/gcc/arm-eabi/4.1.1/../../../../arm-eabi/lib\libc.a(lib_a-fopen.o)
                0x02022f94                fopen
                0x02022eb4                _fopen_r
 .text          0x02022fb0       0x90 c:/devkitpro2007/devkitarm/bin/../lib/gcc/arm-eabi/4.1.1/../../../../arm-eabi/lib\libc.a(lib_a-fputc.o)
                0x02023000                _fputc_r
                0x02022fb0                fputc
 .text          0x02023040       0x8c c:/devkitpro2007/devkitarm/bin/../lib/gcc/arm-eabi/4.1.1/../../../../arm-eabi/lib\libc.a(lib_a-fputs.o)
                0x02023040                _fputs_r
                0x020230b0                fputs
 .text          0x020230cc      0x228 c:/devkitpro2007/devkitarm/bin/../lib/gcc/arm-eabi/4.1.1/../../../../arm-eabi/lib\libc.a(lib_a-fread.o)
                0x020232b0                fread
                0x020230cc                _fread_r
 .text          0x020232f4      0x3c0 c:/devkitpro2007/devkitarm/bin/../lib/gcc/arm-eabi/4.1.1/../../../../arm-eabi/lib\libc.a(lib_a-freer.o)
                0x020233fc                _free_r
                0x020232f4                _malloc_trim_r
 .text          0x020236b4      0x490 c:/devkitpro2007/devkitarm/bin/../lib/gcc/arm-eabi/4.1.1/../../../../arm-eabi/lib\libc.a(lib_a-fseek.o)
                0x02023b18                fseek
                0x020236b4                _fseek_r
 .text          0x02023b44       0x48 c:/devkitpro2007/devkitarm/bin/../lib/gcc/arm-eabi/4.1.1/../../../../arm-eabi/lib\libc.a(lib_a-fstatr.o)
                0x02023b44                _fstat_r
 .text          0x02023b8c       0xdc c:/devkitpro2007/devkitarm/bin/../lib/gcc/arm-eabi/4.1.1/../../../../arm-eabi/lib\libc.a(lib_a-ftell.o)
                0x02023c54                ftell
                0x02023b8c                _ftell_r
 .text          0x02023c68      0x444 c:/devkitpro2007/devkitarm/bin/../lib/gcc/arm-eabi/4.1.1/../../../../arm-eabi/lib\libc.a(lib_a-fvwrite.o)
                0x02023c68                __sfvwrite_r
 .text          0x020240ac      0x11c c:/devkitpro2007/devkitarm/bin/../lib/gcc/arm-eabi/4.1.1/../../../../arm-eabi/lib\libc.a(lib_a-fwalk.o)
                0x02024138                _fwalk
                0x020240ac                _fwalk_reent
 .text          0x020241c8       0xc8 c:/devkitpro2007/devkitarm/bin/../lib/gcc/arm-eabi/4.1.1/../../../../arm-eabi/lib\libc.a(lib_a-fwrite.o)
                0x020241c8                _fwrite_r
                0x0202424c                fwrite
 .text          0x02024290        0x0 c:/devkitpro2007/devkitarm/bin/../lib/gcc/arm-eabi/4.1.1/../../../../arm-eabi/lib\libc.a(lib_a-impure.o)
 .text          0x02024290       0xd4 c:/devkitpro2007/devkitarm/bin/../lib/gcc/arm-eabi/4.1.1/../../../../arm-eabi/lib\libc.a(lib_a-init.o)
                0x020242dc                __libc_init_array
                0x02024290                __libc_fini_array
 .text          0x02024364       0x74 c:/devkitpro2007/devkitarm/bin/../lib/gcc/arm-eabi/4.1.1/../../../../arm-eabi/lib\libc.a(lib_a-iprintf.o)
                0x02024364                _iprintf_r
                0x02024398                iprintf
 .text          0x020243d8      0x168 c:/devkitpro2007/devkitarm/bin/../lib/gcc/arm-eabi/4.1.1/../../../../arm-eabi/lib\libc.a(lib_a-makebuf.o)
                0x020243d8                __smakebuf
 .text          0x02024540       0x50 c:/devkitpro2007/devkitarm/bin/../lib/gcc/arm-eabi/4.1.1/../../../../arm-eabi/lib\libc.a(lib_a-malloc.o)
                0x02024568                malloc
                0x02024540                free
 .text          0x02024590      0x774 c:/devkitpro2007/devkitarm/bin/../lib/gcc/arm-eabi/4.1.1/../../../../arm-eabi/lib\libc.a(lib_a-mallocr.o)
                0x02024590                _malloc_r
 .text          0x02024d04      0x100 c:/devkitpro2007/devkitarm/bin/../lib/gcc/arm-eabi/4.1.1/../../../../arm-eabi/lib\libc.a(lib_a-memchr.o)
                0x02024d04                memchr
 .text          0x02024e04       0x9c c:/devkitpro2007/devkitarm/bin/../lib/gcc/arm-eabi/4.1.1/../../../../arm-eabi/lib\libc.a(lib_a-memcpy.o)
                0x02024e04                memcpy
 .text          0x02024ea0       0xfc c:/devkitpro2007/devkitarm/bin/../lib/gcc/arm-eabi/4.1.1/../../../../arm-eabi/lib\libc.a(lib_a-memmove.o)
                0x02024ea0                memmove
 .text          0x02024f9c       0x98 c:/devkitpro2007/devkitarm/bin/../lib/gcc/arm-eabi/4.1.1/../../../../arm-eabi/lib\libc.a(lib_a-memset.o)
                0x02024f9c                memset
 .text          0x02025034        0x8 c:/devkitpro2007/devkitarm/bin/../lib/gcc/arm-eabi/4.1.1/../../../../arm-eabi/lib\libc.a(lib_a-mlock.o)
                0x02025038                __malloc_unlock
                0x02025034                __malloc_lock
 .text          0x0202503c       0x4c c:/devkitpro2007/devkitarm/bin/../lib/gcc/arm-eabi/4.1.1/../../../../arm-eabi/lib\libc.a(lib_a-openr.o)
                0x0202503c                _open_r
 .text          0x02025088      0x188 c:/devkitpro2007/devkitarm/bin/../lib/gcc/arm-eabi/4.1.1/../../../../arm-eabi/lib\libc.a(lib_a-putc.o)
                0x02025154                _putc_r
                0x02025088                putc
 .text          0x02025210      0x958 c:/devkitpro2007/devkitarm/bin/../lib/gcc/arm-eabi/4.1.1/../../../../arm-eabi/lib\libc.a(lib_a-qsort.o)
                0x02025210                qsort
 .text          0x02025b68      0x61c c:/devkitpro2007/devkitarm/bin/../lib/gcc/arm-eabi/4.1.1/../../../../arm-eabi/lib\libc.a(lib_a-reallocr.o)
                0x02025b68                _realloc_r
 .text          0x02026184      0x1a4 c:/devkitpro2007/devkitarm/bin/../lib/gcc/arm-eabi/4.1.1/../../../../arm-eabi/lib\libc.a(lib_a-reent.o)
                0x02026200                cleanup_glue
                0x02026234                _reclaim_reent
                0x02026184                _wrapup_reent
 .text          0x02026328      0x1e0 c:/devkitpro2007/devkitarm/bin/../lib/gcc/arm-eabi/4.1.1/../../../../arm-eabi/lib\libc.a(lib_a-refill.o)
                0x02026360                __srefill_r
 .text          0x02026508       0x48 c:/devkitpro2007/devkitarm/bin/../lib/gcc/arm-eabi/4.1.1/../../../../arm-eabi/lib\libc.a(lib_a-sbrkr.o)
                0x02026508                _sbrk_r
 .text          0x02026550      0x1ac c:/devkitpro2007/devkitarm/bin/../lib/gcc/arm-eabi/4.1.1/../../../../arm-eabi/lib\libc.a(lib_a-setvbuf.o)
                0x02026550                setvbuf
 .text          0x020266fc      0x108 c:/devkitpro2007/devkitarm/bin/../lib/gcc/arm-eabi/4.1.1/../../../../arm-eabi/lib\libc.a(lib_a-siscanf.o)
                0x02026704                _siscanf_r
                0x02026784                siscanf
 .text          0x02026804      0x150 c:/devkitpro2007/devkitarm/bin/../lib/gcc/arm-eabi/4.1.1/../../../../arm-eabi/lib\libc.a(lib_a-snprintf.o)
                0x02026804                snprintf
                0x020268b4                _snprintf_r
 .text          0x02026954       0xdc c:/devkitpro2007/devkitarm/bin/../lib/gcc/arm-eabi/4.1.1/../../../../arm-eabi/lib\libc.a(lib_a-sprintf.o)
                0x020269c8                _sprintf_r
                0x02026954                sprintf
 .text          0x02026a30      0x128 c:/devkitpro2007/devkitarm/bin/../lib/gcc/arm-eabi/4.1.1/../../../../arm-eabi/lib\libc.a(lib_a-stdio.o)
                0x02026a58                __sseek
                0x02026b10                __sread
                0x02026a30                __sclose
                0x02026aa4                __swrite
 .text          0x02026b58       0x9c c:/devkitpro2007/devkitarm/bin/../lib/gcc/arm-eabi/4.1.1/../../../../arm-eabi/lib\libc.a(lib_a-strcasecmp.o)
                0x02026b58                strcasecmp
 .text          0x02026bf4       0x98 c:/devkitpro2007/devkitarm/bin/../lib/gcc/arm-eabi/4.1.1/../../../../arm-eabi/lib\libc.a(lib_a-strcat.o)
                0x02026bf4                strcat
 .text          0x02026c8c      0x118 c:/devkitpro2007/devkitarm/bin/../lib/gcc/arm-eabi/4.1.1/../../../../arm-eabi/lib\libc.a(lib_a-strchr.o)
                0x02026c8c                strchr
 .text          0x02026da4       0xd0 c:/devkitpro2007/devkitarm/bin/../lib/gcc/arm-eabi/4.1.1/../../../../arm-eabi/lib\libc.a(lib_a-strcmp.o)
                0x02026da4                strcmp
 .text          0x02026e74       0xa0 c:/devkitpro2007/devkitarm/bin/../lib/gcc/arm-eabi/4.1.1/../../../../arm-eabi/lib\libc.a(lib_a-strcpy.o)
                0x02026e74                strcpy
 .text          0x02026f14       0x90 c:/devkitpro2007/devkitarm/bin/../lib/gcc/arm-eabi/4.1.1/../../../../arm-eabi/lib\libc.a(lib_a-strlen.o)
                0x02026f14                strlen
 .text          0x02026fa4       0xb8 c:/devkitpro2007/devkitarm/bin/../lib/gcc/arm-eabi/4.1.1/../../../../arm-eabi/lib\libc.a(lib_a-strncasecmp.o)
                0x02026fa4                strncasecmp
 .text          0x0202705c      0x13c c:/devkitpro2007/devkitarm/bin/../lib/gcc/arm-eabi/4.1.1/../../../../arm-eabi/lib\libc.a(lib_a-strncmp.o)
                0x0202705c                strncmp
 .text          0x02027198      0x114 c:/devkitpro2007/devkitarm/bin/../lib/gcc/arm-eabi/4.1.1/../../../../arm-eabi/lib\libc.a(lib_a-strncpy.o)
                0x02027198                strncpy
 .text          0x020272ac       0x48 c:/devkitpro2007/devkitarm/bin/../lib/gcc/arm-eabi/4.1.1/../../../../arm-eabi/lib\libc.a(lib_a-strnlen.o)
                0x020272ac                strnlen
 .text          0x020272f4       0x50 c:/devkitpro2007/devkitarm/bin/../lib/gcc/arm-eabi/4.1.1/../../../../arm-eabi/lib\libc.a(lib_a-strpbrk.o)
                0x020272f4                strpbrk
 .text          0x02027344       0x50 c:/devkitpro2007/devkitarm/bin/../lib/gcc/arm-eabi/4.1.1/../../../../arm-eabi/lib\libc.a(lib_a-strrchr.o)
                0x02027344                strrchr
 .text          0x02027394       0x54 c:/devkitpro2007/devkitarm/bin/../lib/gcc/arm-eabi/4.1.1/../../../../arm-eabi/lib\libc.a(lib_a-strstr.o)
                0x02027394                strstr
 .text          0x020273e8     0x15c8 c:/devkitpro2007/devkitarm/bin/../lib/gcc/arm-eabi/4.1.1/../../../../arm-eabi/lib\libc.a(lib_a-strtod.o)
                0x02027430                _strtod_r
                0x02028990                strtod
                0x02028934                strtof
 .text          0x020289b0      0x1f0 c:/devkitpro2007/devkitarm/bin/../lib/gcc/arm-eabi/4.1.1/../../../../arm-eabi/lib\libc.a(lib_a-strtol.o)
                0x02028b74                strtol
                0x020289b0                _strtol_r
 .text          0x02028ba0      0x1e4 c:/devkitpro2007/devkitarm/bin/../lib/gcc/arm-eabi/4.1.1/../../../../arm-eabi/lib\libc.a(lib_a-strtoul.o)
                0x02028d58                strtoul
                0x02028ba0                _strtoul_r
 .text          0x02028d84       0x44 c:/devkitpro2007/devkitarm/bin/../lib/gcc/arm-eabi/4.1.1/../../../../arm-eabi/lib\libc.a(lib_a-strupr.o)
                0x02028d84                strupr
 .text          0x02028dc8       0x18 c:/devkitpro2007/devkitarm/bin/../lib/gcc/arm-eabi/4.1.1/../../../../arm-eabi/lib\libc.a(lib_a-sysclose.o)
                0x02028dc8                close
 .text          0x02028de0       0x18 c:/devkitpro2007/devkitarm/bin/../lib/gcc/arm-eabi/4.1.1/../../../../arm-eabi/lib\libc.a(lib_a-syslseek.o)
                0x02028de0                lseek
 .text          0x02028df8       0x30 c:/devkitpro2007/devkitarm/bin/../lib/gcc/arm-eabi/4.1.1/../../../../arm-eabi/lib\libc.a(lib_a-sysopen.o)
                0x02028df8                open
 .text          0x02028e28       0x18 c:/devkitpro2007/devkitarm/bin/../lib/gcc/arm-eabi/4.1.1/../../../../arm-eabi/lib\libc.a(lib_a-sysread.o)
                0x02028e28                read
 .text          0x02028e40       0x1c c:/devkitpro2007/devkitarm/bin/../lib/gcc/arm-eabi/4.1.1/../../../../arm-eabi/lib\libc.a(lib_a-toupper.o)
                0x02028e40                toupper
 .text          0x02028e5c     0x1314 c:/devkitpro2007/devkitarm/bin/../lib/gcc/arm-eabi/4.1.1/../../../../arm-eabi/lib\libc.a(lib_a-vfiprintf.o)
                0x0202a144                vfiprintf
                0x02028e9c                _vfiprintf_r
 .text          0x0202a170      0xff4 c:/devkitpro2007/devkitarm/bin/../lib/gcc/arm-eabi/4.1.1/../../../../arm-eabi/lib\libc.a(lib_a-vfiscanf.o)
                0x0202b0bc                _vfiscanf_r
                0x0202b108                vfiscanf
                0x0202a170                __svfiscanf_r
                0x0202b090                __svfiscanf
 .text          0x0202b164     0x2178 c:/devkitpro2007/devkitarm/bin/../lib/gcc/arm-eabi/4.1.1/../../../../arm-eabi/lib\libc.a(lib_a-vfprintf.o)
                0x0202b1a4                _vfprintf_r
                0x0202d2b0                vfprintf
 .text          0x0202d2dc      0x110 c:/devkitpro2007/devkitarm/bin/../lib/gcc/arm-eabi/4.1.1/../../../../arm-eabi/lib\libc.a(lib_a-vsnprintf.o)
                0x0202d368                vsnprintf
                0x0202d2dc                _vsnprintf_r
 .text          0x0202d3ec      0x128 c:/devkitpro2007/devkitarm/bin/../lib/gcc/arm-eabi/4.1.1/../../../../arm-eabi/lib\libc.a(lib_a-wbuf.o)
                0x0202d3ec                __swbuf_r
                0x0202d4f8                __swbuf
 .text          0x0202d514       0x84 c:/devkitpro2007/devkitarm/bin/../lib/gcc/arm-eabi/4.1.1/../../../../arm-eabi/lib\libc.a(lib_a-wcrtomb.o)
                0x0202d514                _wcrtomb_r
                0x0202d56c                wcrtomb
 .text          0x0202d598      0x180 c:/devkitpro2007/devkitarm/bin/../lib/gcc/arm-eabi/4.1.1/../../../../arm-eabi/lib\libc.a(lib_a-wcsrtombs.o)
                0x0202d598                _wcsrtombs_r
                0x0202d6d4                wcsrtombs
 .text          0x0202d718      0x428 c:/devkitpro2007/devkitarm/bin/../lib/gcc/arm-eabi/4.1.1/../../../../arm-eabi/lib\libc.a(lib_a-wctomb_r.o)
                0x0202d718                _wctomb_r
 .text          0x0202db40       0x4c c:/devkitpro2007/devkitarm/bin/../lib/gcc/arm-eabi/4.1.1/../../../../arm-eabi/lib\libc.a(lib_a-writer.o)
                0x0202db40                _write_r
 .text          0x0202db8c      0x10c c:/devkitpro2007/devkitarm/bin/../lib/gcc/arm-eabi/4.1.1/../../../../arm-eabi/lib\libc.a(lib_a-wsetup.o)
                0x0202db8c                __swsetup
 .text          0x0202dc98       0x44 c:/devkitpro2007/devkitarm/bin/../lib/gcc/arm-eabi/4.1.1/../../../../arm-eabi/lib\libc.a(lib_a-closer.o)
                0x0202dc98                _close_r
 *fill*         0x0202dcdc        0x4 ff
 .text          0x0202dce0     0x1648 c:/devkitpro2007/devkitarm/bin/../lib/gcc/arm-eabi/4.1.1/../../../../arm-eabi/lib\libc.a(lib_a-dtoa.o)
                0x0202deec                _dtoa_r
 .text          0x0202f328       0xa4 c:/devkitpro2007/devkitarm/bin/../lib/gcc/arm-eabi/4.1.1/../../../../arm-eabi/lib\libc.a(lib_a-flags.o)
                0x0202f328                __sflags
 .text          0x0202f3cc      0x838 c:/devkitpro2007/devkitarm/bin/../lib/gcc/arm-eabi/4.1.1/../../../../arm-eabi/lib\libc.a(lib_a-gdtoa-gethex.o)
                0x0202f400                __hexdig_init
                0x0202f4f8                __gethex
 .text          0x0202fc04      0x274 c:/devkitpro2007/devkitarm/bin/../lib/gcc/arm-eabi/4.1.1/../../../../arm-eabi/lib\libc.a(lib_a-gdtoa-hexnan.o)
                0x0202fc3c                __hexnan
 .text          0x0202fe78       0x24 c:/devkitpro2007/devkitarm/bin/../lib/gcc/arm-eabi/4.1.1/../../../../arm-eabi/lib\libc.a(lib_a-iswspace.o)
                0x0202fe78                iswspace
 .text          0x0202fe9c       0xb0 c:/devkitpro2007/devkitarm/bin/../lib/gcc/arm-eabi/4.1.1/../../../../arm-eabi/lib\libc.a(lib_a-locale.o)
                0x0202fec8                _setlocale_r
                0x0202fe9c                __locale_charset
                0x0202feac                _localeconv_r
                0x0202ff30                setlocale
                0x0202feb8                localeconv
 .text          0x0202ff4c       0x4c c:/devkitpro2007/devkitarm/bin/../lib/gcc/arm-eabi/4.1.1/../../../../arm-eabi/lib\libc.a(lib_a-lseekr.o)
                0x0202ff4c                _lseek_r
 .text          0x0202ff98       0xac c:/devkitpro2007/devkitarm/bin/../lib/gcc/arm-eabi/4.1.1/../../../../arm-eabi/lib\libc.a(lib_a-mbrtowc.o)
                0x02030000                mbrtowc
                0x0202ff98                _mbrtowc_r
 .text          0x02030044       0x50 c:/devkitpro2007/devkitarm/bin/../lib/gcc/arm-eabi/4.1.1/../../../../arm-eabi/lib\libc.a(lib_a-mbtowc_r.o)
                0x02030044                _mbtowc_r
 .text          0x02030094      0xd08 c:/devkitpro2007/devkitarm/bin/../lib/gcc/arm-eabi/4.1.1/../../../../arm-eabi/lib\libc.a(lib_a-mprec.o)
                0x02030390                _mprec_log10
                0x02030448                __any_on
                0x020304dc                _Balloc
                0x02030314                __ratio
                0x02030ac0                __i2b
                0x0203025c                __b2d
                0x02030ca8                __s2b
                0x0203019c                __mcmp
                0x020300b0                __hi0bits
                0x02030bb0                __pow5mult
                0x020307f4                __lshift
                0x020308fc                __multiply
                0x02030578                __d2b
                0x020303f8                __copybits
                0x020301fc                __ulp
                0x020306b8                __mdiff
                0x02030108                __lo0bits
                0x02030ae4                __multadd
                0x02030094                _Bfree
 .text          0x02030d9c       0x4c c:/devkitpro2007/devkitarm/bin/../lib/gcc/arm-eabi/4.1.1/../../../../arm-eabi/lib\libc.a(lib_a-readr.o)
                0x02030d9c                _read_r
 .text          0x02030de8       0x3c c:/devkitpro2007/devkitarm/bin/../lib/gcc/arm-eabi/4.1.1/../../../../arm-eabi/lib\libc.a(lib_a-s_isinfd.o)
                0x02030de8                __isinfd
 .text          0x02030e24       0x30 c:/devkitpro2007/devkitarm/bin/../lib/gcc/arm-eabi/4.1.1/../../../../arm-eabi/lib\libc.a(lib_a-s_isnand.o)
                0x02030e24                __isnand
 .text          0x02030e54       0xc8 c:/devkitpro2007/devkitarm/bin/../lib/gcc/arm-eabi/4.1.1/../../../../arm-eabi/lib\libc.a(lib_a-sccl.o)
                0x02030e54                __sccl
 .text          0x02030f1c        0xc c:/devkitpro2007/devkitarm/bin/../lib/gcc/arm-eabi/4.1.1/../../../../arm-eabi/lib\libc.a(lib_a-sf_nan.o)
                0x02030f1c                nanf
 .text          0x02030f28      0x254 c:/devkitpro2007/devkitarm/bin/../lib/gcc/arm-eabi/4.1.1/../../../../arm-eabi/lib\libc.a(lib_a-ungetc.o)
                0x02031160                ungetc
                0x02030f28                __submore
                0x02030fe4                _ungetc_r
 .text          0x0203117c       0xa0 c:/devkitpro2007/devkitarm/bin/../lib/gcc/arm-eabi/4.1.1/../../../../arm-eabi/lib\libc.a(lib_a-callocr.o)
                0x0203117c                _calloc_r
 .text          0x0203121c      0x49c c:/devkitpro2007/devkitarm/bin/../lib/gcc/arm-eabi/4.1.1\libgcc.a(_muldivdf3.o)
                0x020314ac                __aeabi_ddiv
                0x0203121c                __aeabi_dmul
                0x020314ac                __divdf3
                0x0203121c                __muldf3
 .text          0x020316b8      0x140 c:/devkitpro2007/devkitarm/bin/../lib/gcc/arm-eabi/4.1.1\libgcc.a(_cmpdf2.o)
                0x020317b0                __aeabi_dcmple
                0x020316c8                __cmpdf2
                0x020316c8                __eqdf2
                0x020316b8                __gtdf2
                0x02031768                __aeabi_cdcmple
                0x0203174c                __aeabi_cdrcmple
                0x020316c0                __ltdf2
                0x02031798                __aeabi_dcmplt
                0x020316c0                __ledf2
                0x020317e0                __aeabi_dcmpgt
                0x020317c8                __aeabi_dcmpge
                0x020316c8                __nedf2
                0x02031780                __aeabi_dcmpeq
                0x02031768                __aeabi_cdcmpeq
                0x020316b8                __gedf2
 .text          0x020317f8       0x5c c:/devkitpro2007/devkitarm/bin/../lib/gcc/arm-eabi/4.1.1\libgcc.a(_fixdfsi.o)
                0x020317f8                __fixdfsi
                0x020317f8                __aeabi_d2iz
 .text          0x02031854       0x54 c:/devkitpro2007/devkitarm/bin/../lib/gcc/arm-eabi/4.1.1\libgcc.a(_fixunsdfsi.o)
                0x02031854                __fixunsdfsi
                0x02031854                __aeabi_d2uiz
 .text          0x020318a8      0x18c c:/devkitpro2007/devkitarm/bin/../lib/gcc/arm-eabi/4.1.1/../../../../arm-eabi/lib\libsysbase.a(iosupport.o)
                0x020319f8                RemoveDevice
                0x020318a8                setDefaultDevice
                0x020318c0                AddDevice
                0x02031954                FindDevice
 .text          0x02031a34       0x6c c:/devkitpro2007/devkitarm/bin/../lib/gcc/arm-eabi/4.1.1/../../../../arm-eabi/lib\libsysbase.a(close.o)
                0x02031a34                _close
 .text          0x02031aa0       0x74 c:/devkitpro2007/devkitarm/bin/../lib/gcc/arm-eabi/4.1.1/../../../../arm-eabi/lib\libsysbase.a(fstat.o)
                0x02031aa0                _fstat
 .text          0x02031b14        0x8 c:/devkitpro2007/devkitarm/bin/../lib/gcc/arm-eabi/4.1.1/../../../../arm-eabi/lib\libsysbase.a(isatty.o)
                0x02031b14                isatty
 .text          0x02031b1c       0x54 c:/devkitpro2007/devkitarm/bin/../lib/gcc/arm-eabi/4.1.1/../../../../arm-eabi/lib\libsysbase.a(lseek.o)
                0x02031b1c                _lseek
 .text          0x02031b70       0xd0 c:/devkitpro2007/devkitarm/bin/../lib/gcc/arm-eabi/4.1.1/../../../../arm-eabi/lib\libsysbase.a(open.o)
                0x02031b70                _open
 .text          0x02031c40       0x70 c:/devkitpro2007/devkitarm/bin/../lib/gcc/arm-eabi/4.1.1/../../../../arm-eabi/lib\libsysbase.a(read.o)
                0x02031c40                _read
 .text          0x02031cb0       0x80 c:/devkitpro2007/devkitarm/bin/../lib/gcc/arm-eabi/4.1.1/../../../../arm-eabi/lib\libsysbase.a(sbrk.o)
                0x02031cb0                _sbrk
 .text          0x02031d30       0x70 c:/devkitpro2007/devkitarm/bin/../lib/gcc/arm-eabi/4.1.1/../../../../arm-eabi/lib\libsysbase.a(write.o)
                0x02031d30                _write
 .text          0x02031da0        0x0 c:/devkitpro2007/devkitarm/bin/../lib/gcc/arm-eabi/4.1.1/../../../../arm-eabi/lib\libsysbase.a(malloc_vars.o)
 .text          0x02031da0      0x360 c:/devkitpro2007/devkitarm/bin/../lib/gcc/arm-eabi/4.1.1/../../../../arm-eabi/lib\libsysbase.a(chdir.o)
                0x02031fb0                chdir
                0x02031da0                getcwd
                0x02031e08                _concatenate_path
 .text          0x02032100      0x20c c:/devkitpro2007/devkitarm/bin/../lib/gcc/arm-eabi/4.1.1/../../../../arm-eabi/lib\libsysbase.a(dir.o)
                0x02032100                dirreset
                0x02032164                dirnext
                0x02032248                diropen
                0x020321d4                dirclose
 .text          0x0203230c        0x0 c:/devkitpro2007/devkitarm/bin/../lib/gcc/arm-eabi/4.1.1/crtend.o
 .text          0x0203230c        0x0 c:/devkitpro2007/devkitarm/bin/../lib/gcc/arm-eabi/4.1.1/crtn.o
 *(.text.*)
 *(.stub)
 *(.gnu.warning)
 *(.gnu.linkonce.t*)
 *(.glue_7)
 .glue_7        0x0203230c        0x0 c:/devkitpro2007/devkitarm/bin/../lib/gcc/arm-eabi/4.1.1/../../../../arm-eabi/lib/ds_arm9_crt0.o
 .glue_7        0x0203230c        0x0 c:/devkitpro2007/devkitarm/bin/../lib/gcc/arm-eabi/4.1.1/crti.o
 .glue_7        0x0203230c        0x0 c:/devkitpro2007/devkitarm/bin/../lib/gcc/arm-eabi/4.1.1/crtbegin.o
 .glue_7        0x0203230c        0x0 ./SNES_global.o
 .glue_7        0x0203230c        0x0 ./apu.o
 .glue_7        0x0203230c        0x0 ./conf.o
 .glue_7        0x0203230c        0x0 ./core.o
 .glue_7        0x0203230c        0x0 ./crc32.o
 .glue_7        0x0203230c        0x0 ./engine.o
 .glue_7        0x0203230c        0x0 ./fs.o
 .glue_7        0x0203230c        0x0 ./snemul_gui.o
 .glue_7        0x0203230c        0x0 ./intr.o
 .glue_7        0x0203230c        0x0 ./main.o
 .glue_7        0x0203230c        0x0 ./memmap.o
 .glue_7        0x0203230c        0x0 ./opcodes.o
 .glue_7        0x0203230c        0x0 ./opcodes2.o
 .glue_7        0x0203230c        0x0 ./ppu.o
 .glue_7        0x0203230c        0x0 ./snapshot.o
 .glue_7        0x0203230c        0x0 ./snes.o
 .glue_7        0x0203230c        0x0 ./touch.o
 .glue_7        0x0203230c        0x0 ./gui.o
 .glue_7        0x0203230c        0x0 ./gui_font.o
 .glue_7        0x0203230c        0x0 ./gui_widgets.o
 .glue_7        0x0203230c        0x0 ./katakana_12.o
 .glue_7        0x0203230c        0x0 ./smallfont_7.o
 .glue_7        0x0203230c        0x0 ./trebuchet_9.o
 .glue_7        0x0203230c        0x0 ./input.o
 .glue_7        0x0203230c        0x0 ./ram.o
 .glue_7        0x0203230c        0x0 ./snemul_str_cat.o
 .glue_7        0x0203230c        0x0 ./snemul_str_dan.o
 .glue_7        0x0203230c        0x0 ./snemul_str_eng.o
 .glue_7        0x0203230c        0x0 ./snemul_str_fr.o
 .glue_7        0x0203230c        0x0 ./snemul_str_ger.o
 .glue_7        0x0203230c        0x0 ./snemul_str_ita.o
 .glue_7        0x0203230c        0x0 ./snemul_str_jpn.o
 .glue_7        0x0203230c        0x0 ./snemul_str_nl.o
 .glue_7        0x0203230c        0x0 ./snemul_str_pol.o
 .glue_7        0x0203230c        0x0 ./snemul_str_pt.o
 .glue_7        0x0203230c        0x0 ./snemul_str_spa.o
 .glue_7        0x0203230c        0x0 c:/devkitPro2007/libnds/lib\libfat.a(libfat.o)
 .glue_7        0x0203230c        0x0 c:/devkitPro2007/libnds/lib\libfat.a(partition.o)
 .glue_7        0x0203230c        0x0 c:/devkitPro2007/libnds/lib\libfat.a(disc.o)
 .glue_7        0x0203230c        0x0 c:/devkitPro2007/libnds/lib\libfat.a(io_m3cf.o)
 .glue_7        0x0203230c        0x0 c:/devkitPro2007/libnds/lib\libfat.a(io_m3sd.o)
 .glue_7        0x0203230c        0x0 c:/devkitPro2007/libnds/lib\libfat.a(io_mpcf.o)
 .glue_7        0x0203230c        0x0 c:/devkitPro2007/libnds/lib\libfat.a(io_njsd.o)
 .glue_7        0x0203230c        0x0 c:/devkitPro2007/libnds/lib\libfat.a(io_nmmc.o)
 .glue_7        0x0203230c        0x0 c:/devkitPro2007/libnds/lib\libfat.a(io_sccf.o)
 .glue_7        0x0203230c        0x0 c:/devkitPro2007/libnds/lib\libfat.a(io_scsd.o)
 .glue_7        0x0203230c        0x0 c:/devkitPro2007/libnds/lib\libfat.a(io_sd_common.o)
 .glue_7        0x0203230c        0x0 c:/devkitPro2007/libnds/lib\libfat.a(io_dldi.o)
 .glue_7        0x0203230c        0x0 c:/devkitPro2007/libnds/lib\libfat.a(io_scsd_s.o)
 .glue_7        0x0203230c        0x0 c:/devkitPro2007/libnds/lib\libfat.a(cache.o)
 .glue_7        0x0203230c        0x0 c:/devkitPro2007/libnds/lib\libfat.a(fatdir.o)
 .glue_7        0x0203230c        0x0 c:/devkitPro2007/libnds/lib\libfat.a(fatfile.o)
 .glue_7        0x0203230c        0x0 c:/devkitPro2007/libnds/lib\libfat.a(file_allocation_table.o)
 .glue_7        0x0203230c        0x0 c:/devkitPro2007/libnds/lib\libfat.a(filetime.o)
 .glue_7        0x0203230c        0x0 c:/devkitPro2007/libnds/lib\libfat.a(io_cf_common.o)
 .glue_7        0x0203230c        0x0 c:/devkitPro2007/libnds/lib\libfat.a(io_m3_common.o)
 .glue_7        0x0203230c        0x0 c:/devkitPro2007/libnds/lib\libfat.a(io_sc_common.o)
 .glue_7        0x0203230c        0x0 c:/devkitPro2007/libnds/lib\libfat.a(directory.o)
 .glue_7        0x0203230c        0x0 c:/devkitPro2007/libnds/lib\libnds9.a(console.o)
 .glue_7        0x0203230c        0x0 c:/devkitPro2007/libnds/lib\libnds9.a(keys.o)
 .glue_7        0x0203230c        0x0 c:/devkitPro2007/libnds/lib\libnds9.a(video.o)
 .glue_7        0x0203230c        0x0 c:/devkitPro2007/libnds/lib\libnds9.a(card.o)
 .glue_7        0x0203230c        0x0 c:/devkitPro2007/libnds/lib\libnds9.a(interrupts.o)
 .glue_7        0x0203230c        0x0 c:/devkitPro2007/libnds/lib\libnds9.a(exceptionHandler.o)
 .glue_7        0x0203230c        0x0 c:/devkitPro2007/libnds/lib\libnds9.a(biosCalls.o)
 .glue_7        0x0203230c        0x0 c:/devkitPro2007/libnds/lib\libnds9.a(interruptDispatcher.o)
 .glue_7        0x0203230c        0x0 c:/devkitPro2007/libnds/lib\libnds9.a(default_font.o)
 .glue_7        0x0203230c        0x0 c:/devkitpro2007/devkitarm/bin/../lib/gcc/arm-eabi/4.1.1\libgcc.a(_udivsi3.o)
 .glue_7        0x0203230c        0x0 c:/devkitpro2007/devkitarm/bin/../lib/gcc/arm-eabi/4.1.1\libgcc.a(_divsi3.o)
 .glue_7        0x0203230c        0x0 c:/devkitpro2007/devkitarm/bin/../lib/gcc/arm-eabi/4.1.1\libgcc.a(_dvmd_tls.o)
 .glue_7        0x0203230c        0x0 c:/devkitpro2007/devkitarm/bin/../lib/gcc/arm-eabi/4.1.1\libgcc.a(_call_via_rX.o)
 .glue_7        0x0203230c        0x0 c:/devkitpro2007/devkitarm/bin/../lib/gcc/arm-eabi/4.1.1\libgcc.a(_addsubdf3.o)
 .glue_7        0x0203230c        0x0 c:/devkitpro2007/devkitarm/bin/../lib/gcc/arm-eabi/4.1.1\libgcc.a(_truncdfsf2.o)
 .glue_7        0x0203230c        0x0 c:/devkitpro2007/devkitarm/bin/../lib/gcc/arm-eabi/4.1.1/../../../../arm-eabi/lib\libc.a(lib_a-atof.o)
 .glue_7        0x0203230c        0x0 c:/devkitpro2007/devkitarm/bin/../lib/gcc/arm-eabi/4.1.1/../../../../arm-eabi/lib\libc.a(lib_a-ctype_.o)
 .glue_7        0x0203230c        0x0 c:/devkitpro2007/devkitarm/bin/../lib/gcc/arm-eabi/4.1.1/../../../../arm-eabi/lib\libc.a(lib_a-fclose.o)
 .glue_7        0x0203230c        0x0 c:/devkitpro2007/devkitarm/bin/../lib/gcc/arm-eabi/4.1.1/../../../../arm-eabi/lib\libc.a(lib_a-fflush.o)
 .glue_7        0x0203230c        0x0 c:/devkitpro2007/devkitarm/bin/../lib/gcc/arm-eabi/4.1.1/../../../../arm-eabi/lib\libc.a(lib_a-findfp.o)
 .glue_7        0x0203230c        0x0 c:/devkitpro2007/devkitarm/bin/../lib/gcc/arm-eabi/4.1.1/../../../../arm-eabi/lib\libc.a(lib_a-fopen.o)
 .glue_7        0x0203230c        0x0 c:/devkitpro2007/devkitarm/bin/../lib/gcc/arm-eabi/4.1.1/../../../../arm-eabi/lib\libc.a(lib_a-fputc.o)
 .glue_7        0x0203230c        0x0 c:/devkitpro2007/devkitarm/bin/../lib/gcc/arm-eabi/4.1.1/../../../../arm-eabi/lib\libc.a(lib_a-fputs.o)
 .glue_7        0x0203230c        0x0 c:/devkitpro2007/devkitarm/bin/../lib/gcc/arm-eabi/4.1.1/../../../../arm-eabi/lib\libc.a(lib_a-fread.o)
 .glue_7        0x0203230c        0x0 c:/devkitpro2007/devkitarm/bin/../lib/gcc/arm-eabi/4.1.1/../../../../arm-eabi/lib\libc.a(lib_a-freer.o)
 .glue_7        0x0203230c        0x0 c:/devkitpro2007/devkitarm/bin/../lib/gcc/arm-eabi/4.1.1/../../../../arm-eabi/lib\libc.a(lib_a-fseek.o)
 .glue_7        0x0203230c        0x0 c:/devkitpro2007/devkitarm/bin/../lib/gcc/arm-eabi/4.1.1/../../../../arm-eabi/lib\libc.a(lib_a-fstatr.o)
 .glue_7        0x0203230c        0x0 c:/devkitpro2007/devkitarm/bin/../lib/gcc/arm-eabi/4.1.1/../../../../arm-eabi/lib\libc.a(lib_a-ftell.o)
 .glue_7        0x0203230c        0x0 c:/devkitpro2007/devkitarm/bin/../lib/gcc/arm-eabi/4.1.1/../../../../arm-eabi/lib\libc.a(lib_a-fvwrite.o)
 .glue_7        0x0203230c        0x0 c:/devkitpro2007/devkitarm/bin/../lib/gcc/arm-eabi/4.1.1/../../../../arm-eabi/lib\libc.a(lib_a-fwalk.o)
 .glue_7        0x0203230c        0x0 c:/devkitpro2007/devkitarm/bin/../lib/gcc/arm-eabi/4.1.1/../../../../arm-eabi/lib\libc.a(lib_a-fwrite.o)
 .glue_7        0x0203230c        0x0 c:/devkitpro2007/devkitarm/bin/../lib/gcc/arm-eabi/4.1.1/../../../../arm-eabi/lib\libc.a(lib_a-impure.o)
 .glue_7        0x0203230c        0x0 c:/devkitpro2007/devkitarm/bin/../lib/gcc/arm-eabi/4.1.1/../../../../arm-eabi/lib\libc.a(lib_a-init.o)
 .glue_7        0x0203230c        0x0 c:/devkitpro2007/devkitarm/bin/../lib/gcc/arm-eabi/4.1.1/../../../../arm-eabi/lib\libc.a(lib_a-iprintf.o)
 .glue_7        0x0203230c        0x0 c:/devkitpro2007/devkitarm/bin/../lib/gcc/arm-eabi/4.1.1/../../../../arm-eabi/lib\libc.a(lib_a-makebuf.o)
 .glue_7        0x0203230c        0x0 c:/devkitpro2007/devkitarm/bin/../lib/gcc/arm-eabi/4.1.1/../../../../arm-eabi/lib\libc.a(lib_a-malloc.o)
 .glue_7        0x0203230c        0x0 c:/devkitpro2007/devkitarm/bin/../lib/gcc/arm-eabi/4.1.1/../../../../arm-eabi/lib\libc.a(lib_a-mallocr.o)
 .glue_7        0x0203230c        0x0 c:/devkitpro2007/devkitarm/bin/../lib/gcc/arm-eabi/4.1.1/../../../../arm-eabi/lib\libc.a(lib_a-memchr.o)
 .glue_7        0x0203230c        0x0 c:/devkitpro2007/devkitarm/bin/../lib/gcc/arm-eabi/4.1.1/../../../../arm-eabi/lib\libc.a(lib_a-memcpy.o)
 .glue_7        0x0203230c        0x0 c:/devkitpro2007/devkitarm/bin/../lib/gcc/arm-eabi/4.1.1/../../../../arm-eabi/lib\libc.a(lib_a-memmove.o)
 .glue_7        0x0203230c        0x0 c:/devkitpro2007/devkitarm/bin/../lib/gcc/arm-eabi/4.1.1/../../../../arm-eabi/lib\libc.a(lib_a-memset.o)
 .glue_7        0x0203230c        0x0 c:/devkitpro2007/devkitarm/bin/../lib/gcc/arm-eabi/4.1.1/../../../../arm-eabi/lib\libc.a(lib_a-mlock.o)
 .glue_7        0x0203230c        0x0 c:/devkitpro2007/devkitarm/bin/../lib/gcc/arm-eabi/4.1.1/../../../../arm-eabi/lib\libc.a(lib_a-openr.o)
 .glue_7        0x0203230c        0x0 c:/devkitpro2007/devkitarm/bin/../lib/gcc/arm-eabi/4.1.1/../../../../arm-eabi/lib\libc.a(lib_a-putc.o)
 .glue_7        0x0203230c        0x0 c:/devkitpro2007/devkitarm/bin/../lib/gcc/arm-eabi/4.1.1/../../../../arm-eabi/lib\libc.a(lib_a-qsort.o)
 .glue_7        0x0203230c        0x0 c:/devkitpro2007/devkitarm/bin/../lib/gcc/arm-eabi/4.1.1/../../../../arm-eabi/lib\libc.a(lib_a-reallocr.o)
 .glue_7        0x0203230c        0x0 c:/devkitpro2007/devkitarm/bin/../lib/gcc/arm-eabi/4.1.1/../../../../arm-eabi/lib\libc.a(lib_a-reent.o)
 .glue_7        0x0203230c        0x0 c:/devkitpro2007/devkitarm/bin/../lib/gcc/arm-eabi/4.1.1/../../../../arm-eabi/lib\libc.a(lib_a-refill.o)
 .glue_7        0x0203230c        0x0 c:/devkitpro2007/devkitarm/bin/../lib/gcc/arm-eabi/4.1.1/../../../../arm-eabi/lib\libc.a(lib_a-sbrkr.o)
 .glue_7        0x0203230c        0x0 c:/devkitpro2007/devkitarm/bin/../lib/gcc/arm-eabi/4.1.1/../../../../arm-eabi/lib\libc.a(lib_a-setvbuf.o)
 .glue_7        0x0203230c        0x0 c:/devkitpro2007/devkitarm/bin/../lib/gcc/arm-eabi/4.1.1/../../../../arm-eabi/lib\libc.a(lib_a-siscanf.o)
 .glue_7        0x0203230c        0x0 c:/devkitpro2007/devkitarm/bin/../lib/gcc/arm-eabi/4.1.1/../../../../arm-eabi/lib\libc.a(lib_a-snprintf.o)
 .glue_7        0x0203230c        0x0 c:/devkitpro2007/devkitarm/bin/../lib/gcc/arm-eabi/4.1.1/../../../../arm-eabi/lib\libc.a(lib_a-sprintf.o)
 .glue_7        0x0203230c        0x0 c:/devkitpro2007/devkitarm/bin/../lib/gcc/arm-eabi/4.1.1/../../../../arm-eabi/lib\libc.a(lib_a-stdio.o)
 .glue_7        0x0203230c        0x0 c:/devkitpro2007/devkitarm/bin/../lib/gcc/arm-eabi/4.1.1/../../../../arm-eabi/lib\libc.a(lib_a-strcasecmp.o)
 .glue_7        0x0203230c        0x0 c:/devkitpro2007/devkitarm/bin/../lib/gcc/arm-eabi/4.1.1/../../../../arm-eabi/lib\libc.a(lib_a-strcat.o)
 .glue_7        0x0203230c        0x0 c:/devkitpro2007/devkitarm/bin/../lib/gcc/arm-eabi/4.1.1/../../../../arm-eabi/lib\libc.a(lib_a-strchr.o)
 .glue_7        0x0203230c        0x0 c:/devkitpro2007/devkitarm/bin/../lib/gcc/arm-eabi/4.1.1/../../../../arm-eabi/lib\libc.a(lib_a-strcmp.o)
 .glue_7        0x0203230c        0x0 c:/devkitpro2007/devkitarm/bin/../lib/gcc/arm-eabi/4.1.1/../../../../arm-eabi/lib\libc.a(lib_a-strcpy.o)
 .glue_7        0x0203230c        0x0 c:/devkitpro2007/devkitarm/bin/../lib/gcc/arm-eabi/4.1.1/../../../../arm-eabi/lib\libc.a(lib_a-strlen.o)
 .glue_7        0x0203230c        0x0 c:/devkitpro2007/devkitarm/bin/../lib/gcc/arm-eabi/4.1.1/../../../../arm-eabi/lib\libc.a(lib_a-strncasecmp.o)
 .glue_7        0x0203230c        0x0 c:/devkitpro2007/devkitarm/bin/../lib/gcc/arm-eabi/4.1.1/../../../../arm-eabi/lib\libc.a(lib_a-strncmp.o)
 .glue_7        0x0203230c        0x0 c:/devkitpro2007/devkitarm/bin/../lib/gcc/arm-eabi/4.1.1/../../../../arm-eabi/lib\libc.a(lib_a-strncpy.o)
 .glue_7        0x0203230c        0x0 c:/devkitpro2007/devkitarm/bin/../lib/gcc/arm-eabi/4.1.1/../../../../arm-eabi/lib\libc.a(lib_a-strnlen.o)
 .glue_7        0x0203230c        0x0 c:/devkitpro2007/devkitarm/bin/../lib/gcc/arm-eabi/4.1.1/../../../../arm-eabi/lib\libc.a(lib_a-strpbrk.o)
 .glue_7        0x0203230c        0x0 c:/devkitpro2007/devkitarm/bin/../lib/gcc/arm-eabi/4.1.1/../../../../arm-eabi/lib\libc.a(lib_a-strrchr.o)
 .glue_7        0x0203230c        0x0 c:/devkitpro2007/devkitarm/bin/../lib/gcc/arm-eabi/4.1.1/../../../../arm-eabi/lib\libc.a(lib_a-strstr.o)
 .glue_7        0x0203230c        0x0 c:/devkitpro2007/devkitarm/bin/../lib/gcc/arm-eabi/4.1.1/../../../../arm-eabi/lib\libc.a(lib_a-strtod.o)
 .glue_7        0x0203230c        0x0 c:/devkitpro2007/devkitarm/bin/../lib/gcc/arm-eabi/4.1.1/../../../../arm-eabi/lib\libc.a(lib_a-strtol.o)
 .glue_7        0x0203230c        0x0 c:/devkitpro2007/devkitarm/bin/../lib/gcc/arm-eabi/4.1.1/../../../../arm-eabi/lib\libc.a(lib_a-strtoul.o)
 .glue_7        0x0203230c        0x0 c:/devkitpro2007/devkitarm/bin/../lib/gcc/arm-eabi/4.1.1/../../../../arm-eabi/lib\libc.a(lib_a-strupr.o)
 .glue_7        0x0203230c        0x0 c:/devkitpro2007/devkitarm/bin/../lib/gcc/arm-eabi/4.1.1/../../../../arm-eabi/lib\libc.a(lib_a-sysclose.o)
 .glue_7        0x0203230c        0x0 c:/devkitpro2007/devkitarm/bin/../lib/gcc/arm-eabi/4.1.1/../../../../arm-eabi/lib\libc.a(lib_a-syslseek.o)
 .glue_7        0x0203230c        0x0 c:/devkitpro2007/devkitarm/bin/../lib/gcc/arm-eabi/4.1.1/../../../../arm-eabi/lib\libc.a(lib_a-sysopen.o)
 .glue_7        0x0203230c        0x0 c:/devkitpro2007/devkitarm/bin/../lib/gcc/arm-eabi/4.1.1/../../../../arm-eabi/lib\libc.a(lib_a-sysread.o)
 .glue_7        0x0203230c        0x0 c:/devkitpro2007/devkitarm/bin/../lib/gcc/arm-eabi/4.1.1/../../../../arm-eabi/lib\libc.a(lib_a-toupper.o)
 .glue_7        0x0203230c        0x0 c:/devkitpro2007/devkitarm/bin/../lib/gcc/arm-eabi/4.1.1/../../../../arm-eabi/lib\libc.a(lib_a-vfiprintf.o)
 .glue_7        0x0203230c        0x0 c:/devkitpro2007/devkitarm/bin/../lib/gcc/arm-eabi/4.1.1/../../../../arm-eabi/lib\libc.a(lib_a-vfiscanf.o)
 .glue_7        0x0203230c        0x0 c:/devkitpro2007/devkitarm/bin/../lib/gcc/arm-eabi/4.1.1/../../../../arm-eabi/lib\libc.a(lib_a-vfprintf.o)
 .glue_7        0x0203230c        0x0 c:/devkitpro2007/devkitarm/bin/../lib/gcc/arm-eabi/4.1.1/../../../../arm-eabi/lib\libc.a(lib_a-vsnprintf.o)
 .glue_7        0x0203230c        0x0 c:/devkitpro2007/devkitarm/bin/../lib/gcc/arm-eabi/4.1.1/../../../../arm-eabi/lib\libc.a(lib_a-wbuf.o)
 .glue_7        0x0203230c        0x0 c:/devkitpro2007/devkitarm/bin/../lib/gcc/arm-eabi/4.1.1/../../../../arm-eabi/lib\libc.a(lib_a-wcrtomb.o)
 .glue_7        0x0203230c        0x0 c:/devkitpro2007/devkitarm/bin/../lib/gcc/arm-eabi/4.1.1/../../../../arm-eabi/lib\libc.a(lib_a-wcsrtombs.o)
 .glue_7        0x0203230c        0x0 c:/devkitpro2007/devkitarm/bin/../lib/gcc/arm-eabi/4.1.1/../../../../arm-eabi/lib\libc.a(lib_a-wctomb_r.o)
 .glue_7        0x0203230c        0x0 c:/devkitpro2007/devkitarm/bin/../lib/gcc/arm-eabi/4.1.1/../../../../arm-eabi/lib\libc.a(lib_a-writer.o)
 .glue_7        0x0203230c        0x0 c:/devkitpro2007/devkitarm/bin/../lib/gcc/arm-eabi/4.1.1/../../../../arm-eabi/lib\libc.a(lib_a-wsetup.o)
 .glue_7        0x0203230c        0x0 c:/devkitpro2007/devkitarm/bin/../lib/gcc/arm-eabi/4.1.1/../../../../arm-eabi/lib\libc.a(lib_a-closer.o)
 .glue_7        0x0203230c        0x0 c:/devkitpro2007/devkitarm/bin/../lib/gcc/arm-eabi/4.1.1/../../../../arm-eabi/lib\libc.a(lib_a-dtoa.o)
 .glue_7        0x0203230c        0x0 c:/devkitpro2007/devkitarm/bin/../lib/gcc/arm-eabi/4.1.1/../../../../arm-eabi/lib\libc.a(lib_a-flags.o)
 .glue_7        0x0203230c        0x0 c:/devkitpro2007/devkitarm/bin/../lib/gcc/arm-eabi/4.1.1/../../../../arm-eabi/lib\libc.a(lib_a-gdtoa-gethex.o)
 .glue_7        0x0203230c        0x0 c:/devkitpro2007/devkitarm/bin/../lib/gcc/arm-eabi/4.1.1/../../../../arm-eabi/lib\libc.a(lib_a-gdtoa-hexnan.o)
 .glue_7        0x0203230c        0x0 c:/devkitpro2007/devkitarm/bin/../lib/gcc/arm-eabi/4.1.1/../../../../arm-eabi/lib\libc.a(lib_a-iswspace.o)
 .glue_7        0x0203230c        0x0 c:/devkitpro2007/devkitarm/bin/../lib/gcc/arm-eabi/4.1.1/../../../../arm-eabi/lib\libc.a(lib_a-locale.o)
 .glue_7        0x0203230c        0x0 c:/devkitpro2007/devkitarm/bin/../lib/gcc/arm-eabi/4.1.1/../../../../arm-eabi/lib\libc.a(lib_a-lseekr.o)
 .glue_7        0x0203230c        0x0 c:/devkitpro2007/devkitarm/bin/../lib/gcc/arm-eabi/4.1.1/../../../../arm-eabi/lib\libc.a(lib_a-mbrtowc.o)
 .glue_7        0x0203230c        0x0 c:/devkitpro2007/devkitarm/bin/../lib/gcc/arm-eabi/4.1.1/../../../../arm-eabi/lib\libc.a(lib_a-mbtowc_r.o)
 .glue_7        0x0203230c        0x0 c:/devkitpro2007/devkitarm/bin/../lib/gcc/arm-eabi/4.1.1/../../../../arm-eabi/lib\libc.a(lib_a-mprec.o)
 .glue_7        0x0203230c        0x0 c:/devkitpro2007/devkitarm/bin/../lib/gcc/arm-eabi/4.1.1/../../../../arm-eabi/lib\libc.a(lib_a-readr.o)
 .glue_7        0x0203230c        0x0 c:/devkitpro2007/devkitarm/bin/../lib/gcc/arm-eabi/4.1.1/../../../../arm-eabi/lib\libc.a(lib_a-s_isinfd.o)
 .glue_7        0x0203230c        0x0 c:/devkitpro2007/devkitarm/bin/../lib/gcc/arm-eabi/4.1.1/../../../../arm-eabi/lib\libc.a(lib_a-s_isnand.o)
 .glue_7        0x0203230c        0x0 c:/devkitpro2007/devkitarm/bin/../lib/gcc/arm-eabi/4.1.1/../../../../arm-eabi/lib\libc.a(lib_a-sccl.o)
 .glue_7        0x0203230c        0x0 c:/devkitpro2007/devkitarm/bin/../lib/gcc/arm-eabi/4.1.1/../../../../arm-eabi/lib\libc.a(lib_a-sf_nan.o)
 .glue_7        0x0203230c        0x0 c:/devkitpro2007/devkitarm/bin/../lib/gcc/arm-eabi/4.1.1/../../../../arm-eabi/lib\libc.a(lib_a-ungetc.o)
 .glue_7        0x0203230c        0x0 c:/devkitpro2007/devkitarm/bin/../lib/gcc/arm-eabi/4.1.1/../../../../arm-eabi/lib\libc.a(lib_a-callocr.o)
 .glue_7        0x0203230c        0x0 c:/devkitpro2007/devkitarm/bin/../lib/gcc/arm-eabi/4.1.1\libgcc.a(_muldivdf3.o)
 .glue_7        0x0203230c        0x0 c:/devkitpro2007/devkitarm/bin/../lib/gcc/arm-eabi/4.1.1\libgcc.a(_cmpdf2.o)
 .glue_7        0x0203230c        0x0 c:/devkitpro2007/devkitarm/bin/../lib/gcc/arm-eabi/4.1.1\libgcc.a(_fixdfsi.o)
 .glue_7        0x0203230c        0x0 c:/devkitpro2007/devkitarm/bin/../lib/gcc/arm-eabi/4.1.1\libgcc.a(_fixunsdfsi.o)
 .glue_7        0x0203230c        0x0 c:/devkitpro2007/devkitarm/bin/../lib/gcc/arm-eabi/4.1.1/../../../../arm-eabi/lib\libsysbase.a(iosupport.o)
 .glue_7        0x0203230c        0x0 c:/devkitpro2007/devkitarm/bin/../lib/gcc/arm-eabi/4.1.1/../../../../arm-eabi/lib\libsysbase.a(close.o)
 .glue_7        0x0203230c        0x0 c:/devkitpro2007/devkitarm/bin/../lib/gcc/arm-eabi/4.1.1/../../../../arm-eabi/lib\libsysbase.a(fstat.o)
 .glue_7        0x0203230c        0x0 c:/devkitpro2007/devkitarm/bin/../lib/gcc/arm-eabi/4.1.1/../../../../arm-eabi/lib\libsysbase.a(isatty.o)
 .glue_7        0x0203230c        0x0 c:/devkitpro2007/devkitarm/bin/../lib/gcc/arm-eabi/4.1.1/../../../../arm-eabi/lib\libsysbase.a(lseek.o)
 .glue_7        0x0203230c        0x0 c:/devkitpro2007/devkitarm/bin/../lib/gcc/arm-eabi/4.1.1/../../../../arm-eabi/lib\libsysbase.a(open.o)
 .glue_7        0x0203230c        0x0 c:/devkitpro2007/devkitarm/bin/../lib/gcc/arm-eabi/4.1.1/../../../../arm-eabi/lib\libsysbase.a(read.o)
 .glue_7        0x0203230c        0x0 c:/devkitpro2007/devkitarm/bin/../lib/gcc/arm-eabi/4.1.1/../../../../arm-eabi/lib\libsysbase.a(sbrk.o)
 .glue_7        0x0203230c        0x0 c:/devkitpro2007/devkitarm/bin/../lib/gcc/arm-eabi/4.1.1/../../../../arm-eabi/lib\libsysbase.a(write.o)
 .glue_7        0x0203230c        0x0 c:/devkitpro2007/devkitarm/bin/../lib/gcc/arm-eabi/4.1.1/../../../../arm-eabi/lib\libsysbase.a(malloc_vars.o)
 .glue_7        0x0203230c        0x0 c:/devkitpro2007/devkitarm/bin/../lib/gcc/arm-eabi/4.1.1/../../../../arm-eabi/lib\libsysbase.a(chdir.o)
 .glue_7        0x0203230c        0x0 c:/devkitpro2007/devkitarm/bin/../lib/gcc/arm-eabi/4.1.1/../../../../arm-eabi/lib\libsysbase.a(dir.o)
 .glue_7        0x0203230c       0xfc c:/devkitpro2007/devkitarm/bin/../lib/gcc/arm-eabi/4.1.1/crtend.o
                0x020323c0                __keysHeld_from_arm
                0x02032384                __vramSetBankF_from_arm
                0x020323fc                __keysDownRepeat_from_arm
                0x020323b4                __scanKeys_from_arm
                0x020323f0                __keysDown_from_arm
                0x02032360                __vramSetBankC_from_arm
                0x020323d8                __consoleInitDefault_from_arm
                0x02032378                __vramSetBankE_from_arm
                0x0203230c                ___call_via_r3_from_arm
                0x0203233c                __consoleClear_from_arm
                0x02032354                __vramSetBankB_from_arm
                0x020323a8                __vramSetBankI_from_arm
                0x020323cc                __keysSetRepeat_from_arm
                0x02032348                __vramSetBankA_from_arm
                0x02032390                __vramSetBankG_from_arm
                0x0203239c                __vramSetBankH_from_arm
                0x020323e4                __keysUp_from_arm
                0x0203236c                __vramSetBankD_from_arm
                0x02032318                __swiWaitForVBlank_from_arm
                0x02032324                __fatInitDefault_from_arm
                0x02032330                __swiFastCopy_from_arm
 .glue_7        0x02032408        0x0 c:/devkitpro2007/devkitarm/bin/../lib/gcc/arm-eabi/4.1.1/crtn.o
 *(.glue_7t)
 .glue_7t       0x02032408        0x0 c:/devkitpro2007/devkitarm/bin/../lib/gcc/arm-eabi/4.1.1/../../../../arm-eabi/lib/ds_arm9_crt0.o
 .glue_7t       0x02032408        0x0 c:/devkitpro2007/devkitarm/bin/../lib/gcc/arm-eabi/4.1.1/crti.o
 .glue_7t       0x02032408        0x0 c:/devkitpro2007/devkitarm/bin/../lib/gcc/arm-eabi/4.1.1/crtbegin.o
 .glue_7t       0x02032408        0x0 ./SNES_global.o
 .glue_7t       0x02032408        0x0 ./apu.o
 .glue_7t       0x02032408        0x0 ./conf.o
 .glue_7t       0x02032408        0x0 ./core.o
 .glue_7t       0x02032408        0x0 ./crc32.o
 .glue_7t       0x02032408        0x0 ./engine.o
 .glue_7t       0x02032408        0x0 ./fs.o
 .glue_7t       0x02032408        0x0 ./snemul_gui.o
 .glue_7t       0x02032408        0x0 ./intr.o
 .glue_7t       0x02032408        0x0 ./main.o
 .glue_7t       0x02032408        0x0 ./memmap.o
 .glue_7t       0x02032408        0x0 ./opcodes.o
 .glue_7t       0x02032408        0x0 ./opcodes2.o
 .glue_7t       0x02032408        0x0 ./ppu.o
 .glue_7t       0x02032408        0x0 ./snapshot.o
 .glue_7t       0x02032408        0x0 ./snes.o
 .glue_7t       0x02032408        0x0 ./touch.o
 .glue_7t       0x02032408        0x0 ./gui.o
 .glue_7t       0x02032408        0x0 ./gui_font.o
 .glue_7t       0x02032408        0x0 ./gui_widgets.o
 .glue_7t       0x02032408        0x0 ./katakana_12.o
 .glue_7t       0x02032408        0x0 ./smallfont_7.o
 .glue_7t       0x02032408        0x0 ./trebuchet_9.o
 .glue_7t       0x02032408        0x0 ./input.o
 .glue_7t       0x02032408        0x0 ./ram.o
 .glue_7t       0x02032408        0x0 ./snemul_str_cat.o
 .glue_7t       0x02032408        0x0 ./snemul_str_dan.o
 .glue_7t       0x02032408        0x0 ./snemul_str_eng.o
 .glue_7t       0x02032408        0x0 ./snemul_str_fr.o
 .glue_7t       0x02032408        0x0 ./snemul_str_ger.o
 .glue_7t       0x02032408        0x0 ./snemul_str_ita.o
 .glue_7t       0x02032408        0x0 ./snemul_str_jpn.o
 .glue_7t       0x02032408        0x0 ./snemul_str_nl.o
 .glue_7t       0x02032408        0x0 ./snemul_str_pol.o
 .glue_7t       0x02032408        0x0 ./snemul_str_pt.o
 .glue_7t       0x02032408        0x0 ./snemul_str_spa.o
 .glue_7t       0x02032408        0x0 c:/devkitPro2007/libnds/lib\libfat.a(libfat.o)
 .glue_7t       0x02032408        0x0 c:/devkitPro2007/libnds/lib\libfat.a(partition.o)
 .glue_7t       0x02032408        0x0 c:/devkitPro2007/libnds/lib\libfat.a(disc.o)
 .glue_7t       0x02032408        0x0 c:/devkitPro2007/libnds/lib\libfat.a(io_m3cf.o)
 .glue_7t       0x02032408        0x0 c:/devkitPro2007/libnds/lib\libfat.a(io_m3sd.o)
 .glue_7t       0x02032408        0x0 c:/devkitPro2007/libnds/lib\libfat.a(io_mpcf.o)
 .glue_7t       0x02032408        0x0 c:/devkitPro2007/libnds/lib\libfat.a(io_njsd.o)
 .glue_7t       0x02032408        0x0 c:/devkitPro2007/libnds/lib\libfat.a(io_nmmc.o)
 .glue_7t       0x02032408        0x0 c:/devkitPro2007/libnds/lib\libfat.a(io_sccf.o)
 .glue_7t       0x02032408        0x0 c:/devkitPro2007/libnds/lib\libfat.a(io_scsd.o)
 .glue_7t       0x02032408        0x0 c:/devkitPro2007/libnds/lib\libfat.a(io_sd_common.o)
 .glue_7t       0x02032408        0x0 c:/devkitPro2007/libnds/lib\libfat.a(io_dldi.o)
 .glue_7t       0x02032408        0x0 c:/devkitPro2007/libnds/lib\libfat.a(io_scsd_s.o)
 .glue_7t       0x02032408        0x0 c:/devkitPro2007/libnds/lib\libfat.a(cache.o)
 .glue_7t       0x02032408        0x0 c:/devkitPro2007/libnds/lib\libfat.a(fatdir.o)
 .glue_7t       0x02032408        0x0 c:/devkitPro2007/libnds/lib\libfat.a(fatfile.o)
 .glue_7t       0x02032408        0x0 c:/devkitPro2007/libnds/lib\libfat.a(file_allocation_table.o)
 .glue_7t       0x02032408        0x0 c:/devkitPro2007/libnds/lib\libfat.a(filetime.o)
 .glue_7t       0x02032408        0x0 c:/devkitPro2007/libnds/lib\libfat.a(io_cf_common.o)
 .glue_7t       0x02032408        0x0 c:/devkitPro2007/libnds/lib\libfat.a(io_m3_common.o)
 .glue_7t       0x02032408        0x0 c:/devkitPro2007/libnds/lib\libfat.a(io_sc_common.o)
 .glue_7t       0x02032408        0x0 c:/devkitPro2007/libnds/lib\libfat.a(directory.o)
 .glue_7t       0x02032408        0x0 c:/devkitPro2007/libnds/lib\libnds9.a(console.o)
 .glue_7t       0x02032408        0x0 c:/devkitPro2007/libnds/lib\libnds9.a(keys.o)
 .glue_7t       0x02032408        0x0 c:/devkitPro2007/libnds/lib\libnds9.a(video.o)
 .glue_7t       0x02032408        0x0 c:/devkitPro2007/libnds/lib\libnds9.a(card.o)
 .glue_7t       0x02032408        0x0 c:/devkitPro2007/libnds/lib\libnds9.a(interrupts.o)
 .glue_7t       0x02032408        0x0 c:/devkitPro2007/libnds/lib\libnds9.a(exceptionHandler.o)
 .glue_7t       0x02032408        0x0 c:/devkitPro2007/libnds/lib\libnds9.a(biosCalls.o)
 .glue_7t       0x02032408        0x0 c:/devkitPro2007/libnds/lib\libnds9.a(interruptDispatcher.o)
 .glue_7t       0x02032408        0x0 c:/devkitPro2007/libnds/lib\libnds9.a(default_font.o)
 .glue_7t       0x02032408        0x0 c:/devkitpro2007/devkitarm/bin/../lib/gcc/arm-eabi/4.1.1\libgcc.a(_udivsi3.o)
 .glue_7t       0x02032408        0x0 c:/devkitpro2007/devkitarm/bin/../lib/gcc/arm-eabi/4.1.1\libgcc.a(_divsi3.o)
 .glue_7t       0x02032408        0x0 c:/devkitpro2007/devkitarm/bin/../lib/gcc/arm-eabi/4.1.1\libgcc.a(_dvmd_tls.o)
 .glue_7t       0x02032408        0x0 c:/devkitpro2007/devkitarm/bin/../lib/gcc/arm-eabi/4.1.1\libgcc.a(_call_via_rX.o)
 .glue_7t       0x02032408        0x0 c:/devkitpro2007/devkitarm/bin/../lib/gcc/arm-eabi/4.1.1\libgcc.a(_addsubdf3.o)
 .glue_7t       0x02032408        0x0 c:/devkitpro2007/devkitarm/bin/../lib/gcc/arm-eabi/4.1.1\libgcc.a(_truncdfsf2.o)
 .glue_7t       0x02032408        0x0 c:/devkitpro2007/devkitarm/bin/../lib/gcc/arm-eabi/4.1.1/../../../../arm-eabi/lib\libc.a(lib_a-atof.o)
 .glue_7t       0x02032408        0x0 c:/devkitpro2007/devkitarm/bin/../lib/gcc/arm-eabi/4.1.1/../../../../arm-eabi/lib\libc.a(lib_a-ctype_.o)
 .glue_7t       0x02032408        0x0 c:/devkitpro2007/devkitarm/bin/../lib/gcc/arm-eabi/4.1.1/../../../../arm-eabi/lib\libc.a(lib_a-fclose.o)
 .glue_7t       0x02032408        0x0 c:/devkitpro2007/devkitarm/bin/../lib/gcc/arm-eabi/4.1.1/../../../../arm-eabi/lib\libc.a(lib_a-fflush.o)
 .glue_7t       0x02032408        0x0 c:/devkitpro2007/devkitarm/bin/../lib/gcc/arm-eabi/4.1.1/../../../../arm-eabi/lib\libc.a(lib_a-findfp.o)
 .glue_7t       0x02032408        0x0 c:/devkitpro2007/devkitarm/bin/../lib/gcc/arm-eabi/4.1.1/../../../../arm-eabi/lib\libc.a(lib_a-fopen.o)
 .glue_7t       0x02032408        0x0 c:/devkitpro2007/devkitarm/bin/../lib/gcc/arm-eabi/4.1.1/../../../../arm-eabi/lib\libc.a(lib_a-fputc.o)
 .glue_7t       0x02032408        0x0 c:/devkitpro2007/devkitarm/bin/../lib/gcc/arm-eabi/4.1.1/../../../../arm-eabi/lib\libc.a(lib_a-fputs.o)
 .glue_7t       0x02032408        0x0 c:/devkitpro2007/devkitarm/bin/../lib/gcc/arm-eabi/4.1.1/../../../../arm-eabi/lib\libc.a(lib_a-fread.o)
 .glue_7t       0x02032408        0x0 c:/devkitpro2007/devkitarm/bin/../lib/gcc/arm-eabi/4.1.1/../../../../arm-eabi/lib\libc.a(lib_a-freer.o)
 .glue_7t       0x02032408        0x0 c:/devkitpro2007/devkitarm/bin/../lib/gcc/arm-eabi/4.1.1/../../../../arm-eabi/lib\libc.a(lib_a-fseek.o)
 .glue_7t       0x02032408        0x0 c:/devkitpro2007/devkitarm/bin/../lib/gcc/arm-eabi/4.1.1/../../../../arm-eabi/lib\libc.a(lib_a-fstatr.o)
 .glue_7t       0x02032408        0x0 c:/devkitpro2007/devkitarm/bin/../lib/gcc/arm-eabi/4.1.1/../../../../arm-eabi/lib\libc.a(lib_a-ftell.o)
 .glue_7t       0x02032408        0x0 c:/devkitpro2007/devkitarm/bin/../lib/gcc/arm-eabi/4.1.1/../../../../arm-eabi/lib\libc.a(lib_a-fvwrite.o)
 .glue_7t       0x02032408        0x0 c:/devkitpro2007/devkitarm/bin/../lib/gcc/arm-eabi/4.1.1/../../../../arm-eabi/lib\libc.a(lib_a-fwalk.o)
 .glue_7t       0x02032408        0x0 c:/devkitpro2007/devkitarm/bin/../lib/gcc/arm-eabi/4.1.1/../../../../arm-eabi/lib\libc.a(lib_a-fwrite.o)
 .glue_7t       0x02032408        0x0 c:/devkitpro2007/devkitarm/bin/../lib/gcc/arm-eabi/4.1.1/../../../../arm-eabi/lib\libc.a(lib_a-impure.o)
 .glue_7t       0x02032408        0x0 c:/devkitpro2007/devkitarm/bin/../lib/gcc/arm-eabi/4.1.1/../../../../arm-eabi/lib\libc.a(lib_a-init.o)
 .glue_7t       0x02032408        0x0 c:/devkitpro2007/devkitarm/bin/../lib/gcc/arm-eabi/4.1.1/../../../../arm-eabi/lib\libc.a(lib_a-iprintf.o)
 .glue_7t       0x02032408        0x0 c:/devkitpro2007/devkitarm/bin/../lib/gcc/arm-eabi/4.1.1/../../../../arm-eabi/lib\libc.a(lib_a-makebuf.o)
 .glue_7t       0x02032408        0x0 c:/devkitpro2007/devkitarm/bin/../lib/gcc/arm-eabi/4.1.1/../../../../arm-eabi/lib\libc.a(lib_a-malloc.o)
 .glue_7t       0x02032408        0x0 c:/devkitpro2007/devkitarm/bin/../lib/gcc/arm-eabi/4.1.1/../../../../arm-eabi/lib\libc.a(lib_a-mallocr.o)
 .glue_7t       0x02032408        0x0 c:/devkitpro2007/devkitarm/bin/../lib/gcc/arm-eabi/4.1.1/../../../../arm-eabi/lib\libc.a(lib_a-memchr.o)
 .glue_7t       0x02032408        0x0 c:/devkitpro2007/devkitarm/bin/../lib/gcc/arm-eabi/4.1.1/../../../../arm-eabi/lib\libc.a(lib_a-memcpy.o)
 .glue_7t       0x02032408        0x0 c:/devkitpro2007/devkitarm/bin/../lib/gcc/arm-eabi/4.1.1/../../../../arm-eabi/lib\libc.a(lib_a-memmove.o)
 .glue_7t       0x02032408        0x0 c:/devkitpro2007/devkitarm/bin/../lib/gcc/arm-eabi/4.1.1/../../../../arm-eabi/lib\libc.a(lib_a-memset.o)
 .glue_7t       0x02032408        0x0 c:/devkitpro2007/devkitarm/bin/../lib/gcc/arm-eabi/4.1.1/../../../../arm-eabi/lib\libc.a(lib_a-mlock.o)
 .glue_7t       0x02032408        0x0 c:/devkitpro2007/devkitarm/bin/../lib/gcc/arm-eabi/4.1.1/../../../../arm-eabi/lib\libc.a(lib_a-openr.o)
 .glue_7t       0x02032408        0x0 c:/devkitpro2007/devkitarm/bin/../lib/gcc/arm-eabi/4.1.1/../../../../arm-eabi/lib\libc.a(lib_a-putc.o)
 .glue_7t       0x02032408        0x0 c:/devkitpro2007/devkitarm/bin/../lib/gcc/arm-eabi/4.1.1/../../../../arm-eabi/lib\libc.a(lib_a-qsort.o)
 .glue_7t       0x02032408        0x0 c:/devkitpro2007/devkitarm/bin/../lib/gcc/arm-eabi/4.1.1/../../../../arm-eabi/lib\libc.a(lib_a-reallocr.o)
 .glue_7t       0x02032408        0x0 c:/devkitpro2007/devkitarm/bin/../lib/gcc/arm-eabi/4.1.1/../../../../arm-eabi/lib\libc.a(lib_a-reent.o)
 .glue_7t       0x02032408        0x0 c:/devkitpro2007/devkitarm/bin/../lib/gcc/arm-eabi/4.1.1/../../../../arm-eabi/lib\libc.a(lib_a-refill.o)
 .glue_7t       0x02032408        0x0 c:/devkitpro2007/devkitarm/bin/../lib/gcc/arm-eabi/4.1.1/../../../../arm-eabi/lib\libc.a(lib_a-sbrkr.o)
 .glue_7t       0x02032408        0x0 c:/devkitpro2007/devkitarm/bin/../lib/gcc/arm-eabi/4.1.1/../../../../arm-eabi/lib\libc.a(lib_a-setvbuf.o)
 .glue_7t       0x02032408        0x0 c:/devkitpro2007/devkitarm/bin/../lib/gcc/arm-eabi/4.1.1/../../../../arm-eabi/lib\libc.a(lib_a-siscanf.o)
 .glue_7t       0x02032408        0x0 c:/devkitpro2007/devkitarm/bin/../lib/gcc/arm-eabi/4.1.1/../../../../arm-eabi/lib\libc.a(lib_a-snprintf.o)
 .glue_7t       0x02032408        0x0 c:/devkitpro2007/devkitarm/bin/../lib/gcc/arm-eabi/4.1.1/../../../../arm-eabi/lib\libc.a(lib_a-sprintf.o)
 .glue_7t       0x02032408        0x0 c:/devkitpro2007/devkitarm/bin/../lib/gcc/arm-eabi/4.1.1/../../../../arm-eabi/lib\libc.a(lib_a-stdio.o)
 .glue_7t       0x02032408        0x0 c:/devkitpro2007/devkitarm/bin/../lib/gcc/arm-eabi/4.1.1/../../../../arm-eabi/lib\libc.a(lib_a-strcasecmp.o)
 .glue_7t       0x02032408        0x0 c:/devkitpro2007/devkitarm/bin/../lib/gcc/arm-eabi/4.1.1/../../../../arm-eabi/lib\libc.a(lib_a-strcat.o)
 .glue_7t       0x02032408        0x0 c:/devkitpro2007/devkitarm/bin/../lib/gcc/arm-eabi/4.1.1/../../../../arm-eabi/lib\libc.a(lib_a-strchr.o)
 .glue_7t       0x02032408        0x0 c:/devkitpro2007/devkitarm/bin/../lib/gcc/arm-eabi/4.1.1/../../../../arm-eabi/lib\libc.a(lib_a-strcmp.o)
 .glue_7t       0x02032408        0x0 c:/devkitpro2007/devkitarm/bin/../lib/gcc/arm-eabi/4.1.1/../../../../arm-eabi/lib\libc.a(lib_a-strcpy.o)
 .glue_7t       0x02032408        0x0 c:/devkitpro2007/devkitarm/bin/../lib/gcc/arm-eabi/4.1.1/../../../../arm-eabi/lib\libc.a(lib_a-strlen.o)
 .glue_7t       0x02032408        0x0 c:/devkitpro2007/devkitarm/bin/../lib/gcc/arm-eabi/4.1.1/../../../../arm-eabi/lib\libc.a(lib_a-strncasecmp.o)
 .glue_7t       0x02032408        0x0 c:/devkitpro2007/devkitarm/bin/../lib/gcc/arm-eabi/4.1.1/../../../../arm-eabi/lib\libc.a(lib_a-strncmp.o)
 .glue_7t       0x02032408        0x0 c:/devkitpro2007/devkitarm/bin/../lib/gcc/arm-eabi/4.1.1/../../../../arm-eabi/lib\libc.a(lib_a-strncpy.o)
 .glue_7t       0x02032408        0x0 c:/devkitpro2007/devkitarm/bin/../lib/gcc/arm-eabi/4.1.1/../../../../arm-eabi/lib\libc.a(lib_a-strnlen.o)
 .glue_7t       0x02032408        0x0 c:/devkitpro2007/devkitarm/bin/../lib/gcc/arm-eabi/4.1.1/../../../../arm-eabi/lib\libc.a(lib_a-strpbrk.o)
 .glue_7t       0x02032408        0x0 c:/devkitpro2007/devkitarm/bin/../lib/gcc/arm-eabi/4.1.1/../../../../arm-eabi/lib\libc.a(lib_a-strrchr.o)
 .glue_7t       0x02032408        0x0 c:/devkitpro2007/devkitarm/bin/../lib/gcc/arm-eabi/4.1.1/../../../../arm-eabi/lib\libc.a(lib_a-strstr.o)
 .glue_7t       0x02032408        0x0 c:/devkitpro2007/devkitarm/bin/../lib/gcc/arm-eabi/4.1.1/../../../../arm-eabi/lib\libc.a(lib_a-strtod.o)
 .glue_7t       0x02032408        0x0 c:/devkitpro2007/devkitarm/bin/../lib/gcc/arm-eabi/4.1.1/../../../../arm-eabi/lib\libc.a(lib_a-strtol.o)
 .glue_7t       0x02032408        0x0 c:/devkitpro2007/devkitarm/bin/../lib/gcc/arm-eabi/4.1.1/../../../../arm-eabi/lib\libc.a(lib_a-strtoul.o)
 .glue_7t       0x02032408        0x0 c:/devkitpro2007/devkitarm/bin/../lib/gcc/arm-eabi/4.1.1/../../../../arm-eabi/lib\libc.a(lib_a-strupr.o)
 .glue_7t       0x02032408        0x0 c:/devkitpro2007/devkitarm/bin/../lib/gcc/arm-eabi/4.1.1/../../../../arm-eabi/lib\libc.a(lib_a-sysclose.o)
 .glue_7t       0x02032408        0x0 c:/devkitpro2007/devkitarm/bin/../lib/gcc/arm-eabi/4.1.1/../../../../arm-eabi/lib\libc.a(lib_a-syslseek.o)
 .glue_7t       0x02032408        0x0 c:/devkitpro2007/devkitarm/bin/../lib/gcc/arm-eabi/4.1.1/../../../../arm-eabi/lib\libc.a(lib_a-sysopen.o)
 .glue_7t       0x02032408        0x0 c:/devkitpro2007/devkitarm/bin/../lib/gcc/arm-eabi/4.1.1/../../../../arm-eabi/lib\libc.a(lib_a-sysread.o)
 .glue_7t       0x02032408        0x0 c:/devkitpro2007/devkitarm/bin/../lib/gcc/arm-eabi/4.1.1/../../../../arm-eabi/lib\libc.a(lib_a-toupper.o)
 .glue_7t       0x02032408        0x0 c:/devkitpro2007/devkitarm/bin/../lib/gcc/arm-eabi/4.1.1/../../../../arm-eabi/lib\libc.a(lib_a-vfiprintf.o)
 .glue_7t       0x02032408        0x0 c:/devkitpro2007/devkitarm/bin/../lib/gcc/arm-eabi/4.1.1/../../../../arm-eabi/lib\libc.a(lib_a-vfiscanf.o)
 .glue_7t       0x02032408        0x0 c:/devkitpro2007/devkitarm/bin/../lib/gcc/arm-eabi/4.1.1/../../../../arm-eabi/lib\libc.a(lib_a-vfprintf.o)
 .glue_7t       0x02032408        0x0 c:/devkitpro2007/devkitarm/bin/../lib/gcc/arm-eabi/4.1.1/../../../../arm-eabi/lib\libc.a(lib_a-vsnprintf.o)
 .glue_7t       0x02032408        0x0 c:/devkitpro2007/devkitarm/bin/../lib/gcc/arm-eabi/4.1.1/../../../../arm-eabi/lib\libc.a(lib_a-wbuf.o)
 .glue_7t       0x02032408        0x0 c:/devkitpro2007/devkitarm/bin/../lib/gcc/arm-eabi/4.1.1/../../../../arm-eabi/lib\libc.a(lib_a-wcrtomb.o)
 .glue_7t       0x02032408        0x0 c:/devkitpro2007/devkitarm/bin/../lib/gcc/arm-eabi/4.1.1/../../../../arm-eabi/lib\libc.a(lib_a-wcsrtombs.o)
 .glue_7t       0x02032408        0x0 c:/devkitpro2007/devkitarm/bin/../lib/gcc/arm-eabi/4.1.1/../../../../arm-eabi/lib\libc.a(lib_a-wctomb_r.o)
 .glue_7t       0x02032408        0x0 c:/devkitpro2007/devkitarm/bin/../lib/gcc/arm-eabi/4.1.1/../../../../arm-eabi/lib\libc.a(lib_a-writer.o)
 .glue_7t       0x02032408        0x0 c:/devkitpro2007/devkitarm/bin/../lib/gcc/arm-eabi/4.1.1/../../../../arm-eabi/lib\libc.a(lib_a-wsetup.o)
 .glue_7t       0x02032408        0x0 c:/devkitpro2007/devkitarm/bin/../lib/gcc/arm-eabi/4.1.1/../../../../arm-eabi/lib\libc.a(lib_a-closer.o)
 .glue_7t       0x02032408        0x0 c:/devkitpro2007/devkitarm/bin/../lib/gcc/arm-eabi/4.1.1/../../../../arm-eabi/lib\libc.a(lib_a-dtoa.o)
 .glue_7t       0x02032408        0x0 c:/devkitpro2007/devkitarm/bin/../lib/gcc/arm-eabi/4.1.1/../../../../arm-eabi/lib\libc.a(lib_a-flags.o)
 .glue_7t       0x02032408        0x0 c:/devkitpro2007/devkitarm/bin/../lib/gcc/arm-eabi/4.1.1/../../../../arm-eabi/lib\libc.a(lib_a-gdtoa-gethex.o)
 .glue_7t       0x02032408        0x0 c:/devkitpro2007/devkitarm/bin/../lib/gcc/arm-eabi/4.1.1/../../../../arm-eabi/lib\libc.a(lib_a-gdtoa-hexnan.o)
 .glue_7t       0x02032408        0x0 c:/devkitpro2007/devkitarm/bin/../lib/gcc/arm-eabi/4.1.1/../../../../arm-eabi/lib\libc.a(lib_a-iswspace.o)
 .glue_7t       0x02032408        0x0 c:/devkitpro2007/devkitarm/bin/../lib/gcc/arm-eabi/4.1.1/../../../../arm-eabi/lib\libc.a(lib_a-locale.o)
 .glue_7t       0x02032408        0x0 c:/devkitpro2007/devkitarm/bin/../lib/gcc/arm-eabi/4.1.1/../../../../arm-eabi/lib\libc.a(lib_a-lseekr.o)
 .glue_7t       0x02032408        0x0 c:/devkitpro2007/devkitarm/bin/../lib/gcc/arm-eabi/4.1.1/../../../../arm-eabi/lib\libc.a(lib_a-mbrtowc.o)
 .glue_7t       0x02032408        0x0 c:/devkitpro2007/devkitarm/bin/../lib/gcc/arm-eabi/4.1.1/../../../../arm-eabi/lib\libc.a(lib_a-mbtowc_r.o)
 .glue_7t       0x02032408        0x0 c:/devkitpro2007/devkitarm/bin/../lib/gcc/arm-eabi/4.1.1/../../../../arm-eabi/lib\libc.a(lib_a-mprec.o)
 .glue_7t       0x02032408        0x0 c:/devkitpro2007/devkitarm/bin/../lib/gcc/arm-eabi/4.1.1/../../../../arm-eabi/lib\libc.a(lib_a-readr.o)
 .glue_7t       0x02032408        0x0 c:/devkitpro2007/devkitarm/bin/../lib/gcc/arm-eabi/4.1.1/../../../../arm-eabi/lib\libc.a(lib_a-s_isinfd.o)
 .glue_7t       0x02032408        0x0 c:/devkitpro2007/devkitarm/bin/../lib/gcc/arm-eabi/4.1.1/../../../../arm-eabi/lib\libc.a(lib_a-s_isnand.o)
 .glue_7t       0x02032408        0x0 c:/devkitpro2007/devkitarm/bin/../lib/gcc/arm-eabi/4.1.1/../../../../arm-eabi/lib\libc.a(lib_a-sccl.o)
 .glue_7t       0x02032408        0x0 c:/devkitpro2007/devkitarm/bin/../lib/gcc/arm-eabi/4.1.1/../../../../arm-eabi/lib\libc.a(lib_a-sf_nan.o)
 .glue_7t       0x02032408        0x0 c:/devkitpro2007/devkitarm/bin/../lib/gcc/arm-eabi/4.1.1/../../../../arm-eabi/lib\libc.a(lib_a-ungetc.o)
 .glue_7t       0x02032408        0x0 c:/devkitpro2007/devkitarm/bin/../lib/gcc/arm-eabi/4.1.1/../../../../arm-eabi/lib\libc.a(lib_a-callocr.o)
 .glue_7t       0x02032408        0x0 c:/devkitpro2007/devkitarm/bin/../lib/gcc/arm-eabi/4.1.1\libgcc.a(_muldivdf3.o)
 .glue_7t       0x02032408        0x0 c:/devkitpro2007/devkitarm/bin/../lib/gcc/arm-eabi/4.1.1\libgcc.a(_cmpdf2.o)
 .glue_7t       0x02032408        0x0 c:/devkitpro2007/devkitarm/bin/../lib/gcc/arm-eabi/4.1.1\libgcc.a(_fixdfsi.o)
 .glue_7t       0x02032408        0x0 c:/devkitpro2007/devkitarm/bin/../lib/gcc/arm-eabi/4.1.1\libgcc.a(_fixunsdfsi.o)
 .glue_7t       0x02032408        0x0 c:/devkitpro2007/devkitarm/bin/../lib/gcc/arm-eabi/4.1.1/../../../../arm-eabi/lib\libsysbase.a(iosupport.o)
 .glue_7t       0x02032408        0x0 c:/devkitpro2007/devkitarm/bin/../lib/gcc/arm-eabi/4.1.1/../../../../arm-eabi/lib\libsysbase.a(close.o)
 .glue_7t       0x02032408        0x0 c:/devkitpro2007/devkitarm/bin/../lib/gcc/arm-eabi/4.1.1/../../../../arm-eabi/lib\libsysbase.a(fstat.o)
 .glue_7t       0x02032408        0x0 c:/devkitpro2007/devkitarm/bin/../lib/gcc/arm-eabi/4.1.1/../../../../arm-eabi/lib\libsysbase.a(isatty.o)
 .glue_7t       0x02032408        0x0 c:/devkitpro2007/devkitarm/bin/../lib/gcc/arm-eabi/4.1.1/../../../../arm-eabi/lib\libsysbase.a(lseek.o)
 .glue_7t       0x02032408        0x0 c:/devkitpro2007/devkitarm/bin/../lib/gcc/arm-eabi/4.1.1/../../../../arm-eabi/lib\libsysbase.a(open.o)
 .glue_7t       0x02032408        0x0 c:/devkitpro2007/devkitarm/bin/../lib/gcc/arm-eabi/4.1.1/../../../../arm-eabi/lib\libsysbase.a(read.o)
 .glue_7t       0x02032408        0x0 c:/devkitpro2007/devkitarm/bin/../lib/gcc/arm-eabi/4.1.1/../../../../arm-eabi/lib\libsysbase.a(sbrk.o)
 .glue_7t       0x02032408        0x0 c:/devkitpro2007/devkitarm/bin/../lib/gcc/arm-eabi/4.1.1/../../../../arm-eabi/lib\libsysbase.a(write.o)
 .glue_7t       0x02032408        0x0 c:/devkitpro2007/devkitarm/bin/../lib/gcc/arm-eabi/4.1.1/../../../../arm-eabi/lib\libsysbase.a(malloc_vars.o)
 .glue_7t       0x02032408        0x0 c:/devkitpro2007/devkitarm/bin/../lib/gcc/arm-eabi/4.1.1/../../../../arm-eabi/lib\libsysbase.a(chdir.o)
 .glue_7t       0x02032408        0x0 c:/devkitpro2007/devkitarm/bin/../lib/gcc/arm-eabi/4.1.1/../../../../arm-eabi/lib\libsysbase.a(dir.o)
 .glue_7t       0x02032408       0xc8 c:/devkitpro2007/devkitarm/bin/../lib/gcc/arm-eabi/4.1.1/crtend.o
                0x02032438                __memset_from_thumb
                0x0203248c                __strncasecmp_change_to_arm
                0x02032468                __strrchr_from_thumb
                0x0203244c                ____aeabi_uidiv_change_to_arm
                0x0203243c                __memset_change_to_arm
                0x020324b0                ____aeabi_idivmod_from_thumb
                0x02032458                ___SCSD_writeData_s_from_thumb
                0x02032460                __strncpy_from_thumb
                0x02032444                __malloc_change_to_arm
                0x0203241c                __strlen_change_to_arm
                0x020324a8                ____aeabi_idiv_from_thumb
                0x02032424                __strchr_change_to_arm
                0x02032450                __memcpy_from_thumb
                0x02032448                ____aeabi_uidiv_from_thumb
                0x02032414                __chdir_change_to_arm
                0x020324a4                __strupr_change_to_arm
                0x0203242c                __strncmp_change_to_arm
                0x02032488                __strncasecmp_from_thumb
                0x020324a0                __strupr_from_thumb
                0x02032484                __strcasecmp_change_to_arm
                0x02032470                ____aeabi_uidivmod_from_thumb
                0x020324bc                __iprintf_change_to_arm
                0x0203249c                __memmove_change_to_arm
                0x02032420                __strchr_from_thumb
                0x020324cc                __siscanf_change_to_arm
                0x0203247c                __strnlen_change_to_arm
                0x02032408                __AddDevice_from_thumb
                0x020324b8                __iprintf_from_thumb
                0x02032498                __memmove_from_thumb
                0x02032410                __chdir_from_thumb
                0x0203246c                __strrchr_change_to_arm
                0x02032490                __strpbrk_from_thumb
                0x02032474                ____aeabi_uidivmod_change_to_arm
                0x0203240c                __AddDevice_change_to_arm
                0x02032480                __strcasecmp_from_thumb
                0x02032478                __strnlen_from_thumb
                0x020324c8                __siscanf_from_thumb
                0x0203245c                ___SCSD_writeData_s_change_to_arm
                0x020324c4                __setvbuf_change_to_arm
                0x02032434                __free_change_to_arm
                0x02032418                __strlen_from_thumb
                0x02032440                __malloc_from_thumb
                0x020324b4                ____aeabi_idivmod_change_to_arm
                0x02032454                __memcpy_change_to_arm
                0x02032494                __strpbrk_change_to_arm
                0x020324c0                __setvbuf_from_thumb
                0x02032464                __strncpy_change_to_arm
                0x02032428                __strncmp_from_thumb
                0x020324ac                ____aeabi_idiv_change_to_arm
                0x02032430                __free_from_thumb
 .glue_7t       0x020324d0        0x0 c:/devkitpro2007/devkitarm/bin/../lib/gcc/arm-eabi/4.1.1/crtn.o
                0x020324d0                . = ALIGN (0x4)

.fini           0x020324d0       0x18
 *(.fini)
 .fini          0x020324d0        0xc c:/devkitpro2007/devkitarm/bin/../lib/gcc/arm-eabi/4.1.1/crti.o
                0x020324d0                _fini
 .fini          0x020324dc        0xc c:/devkitpro2007/devkitarm/bin/../lib/gcc/arm-eabi/4.1.1/crtn.o
                0x020324e8                __text_end = .

.rodata         0x020324e8     0x60ec
 *(.rodata)
 .rodata        0x020324e8       0x4c c:/devkitPro2007/libnds/lib\libfat.a(libfat.o)
                0x020324e8                dotab_fat
 .rodata        0x02032534       0x44 c:/devkitPro2007/libnds/lib\libfat.a(io_m3cf.o)
                0x02032534                _io_m3cf
 .rodata        0x02032578       0x20 c:/devkitPro2007/libnds/lib\libfat.a(io_m3sd.o)
                0x02032578                _io_m3sd
 .rodata        0x02032598       0x44 c:/devkitPro2007/libnds/lib\libfat.a(io_mpcf.o)
                0x02032598                _io_mpcf
 .rodata        0x020325dc       0x30 c:/devkitPro2007/libnds/lib\libfat.a(io_njsd.o)
                0x020325dc                _io_njsd
 .rodata        0x0203260c       0x20 c:/devkitPro2007/libnds/lib\libfat.a(io_nmmc.o)
                0x0203260c                _io_nmmc
 .rodata        0x0203262c       0x44 c:/devkitPro2007/libnds/lib\libfat.a(io_sccf.o)
                0x0203262c                _io_sccf
 .rodata        0x02032670       0x20 c:/devkitPro2007/libnds/lib\libfat.a(io_scsd.o)
                0x02032670                _io_scsd
 .rodata        0x02032690       0x34 c:/devkitPro2007/libnds/lib\libfat.a(directory.o)
                0x02032690                LFN_offset_table
 .rodata        0x020326c4      0x120 c:/devkitPro2007/libnds/lib\libnds9.a(console.o)
                0x02032798                dotab_stdout
 .rodata        0x020327e4        0x8 c:/devkitPro2007/libnds/lib\libnds9.a(card.o)
 .rodata        0x020327ec     0x2004 c:/devkitPro2007/libnds/lib\libnds9.a(default_font.o)
                0x020347f0                default_font_bin_end
                0x020327ec                default_font_bin_size
                0x020327f0                default_font_bin
 .rodata        0x020347f0      0x101 c:/devkitpro2007/devkitarm/bin/../lib/gcc/arm-eabi/4.1.1/../../../../arm-eabi/lib\libc.a(lib_a-ctype_.o)
                0x020347f0                _ctype_
 *fill*         0x020348f1        0x3 ff
 .rodata        0x020348f4        0x4 c:/devkitpro2007/devkitarm/bin/../lib/gcc/arm-eabi/4.1.1/../../../../arm-eabi/lib\libc.a(lib_a-impure.o)
                0x020348f4                _global_impure_ptr
 .rodata        0x020348f8       0x28 c:/devkitpro2007/devkitarm/bin/../lib/gcc/arm-eabi/4.1.1/../../../../arm-eabi/lib\libc.a(lib_a-strtod.o)
 .rodata        0x02034920       0x20 c:/devkitpro2007/devkitarm/bin/../lib/gcc/arm-eabi/4.1.1/../../../../arm-eabi/lib\libc.a(lib_a-vfiprintf.o)
 .rodata        0x02034940       0x22 c:/devkitpro2007/devkitarm/bin/../lib/gcc/arm-eabi/4.1.1/../../../../arm-eabi/lib\libc.a(lib_a-vfiscanf.o)
 .rodata        0x02034962       0x20 c:/devkitpro2007/devkitarm/bin/../lib/gcc/arm-eabi/4.1.1/../../../../arm-eabi/lib\libc.a(lib_a-vfprintf.o)
 *fill*         0x02034982        0x2 ff
 .rodata        0x02034984       0x34 c:/devkitpro2007/devkitarm/bin/../lib/gcc/arm-eabi/4.1.1/../../../../arm-eabi/lib\libc.a(lib_a-locale.o)
 .rodata        0x020349b8      0x128 c:/devkitpro2007/devkitarm/bin/../lib/gcc/arm-eabi/4.1.1/../../../../arm-eabi/lib\libc.a(lib_a-mprec.o)
                0x02034aa8                __mprec_tinytens
                0x020349b8                __mprec_tens
                0x02034a80                __mprec_bigtens
 .rodata        0x02034ae0       0x4c c:/devkitpro2007/devkitarm/bin/../lib/gcc/arm-eabi/4.1.1/../../../../arm-eabi/lib\libsysbase.a(iosupport.o)
                0x02034ae0                dotab_stdnull
 .rodata        0x02034b2c        0xc c:/devkitpro2007/devkitarm/bin/../lib/gcc/arm-eabi/4.1.1/../../../../arm-eabi/lib\libsysbase.a(chdir.o)
                0x02034b2c                DIRECTORY_SEPARATOR
                0x02034b30                DIRECTORY_THIS
                0x02034b34                DIRECTORY_PARENT
 *all.rodata*(*)
 *(.roda)
 *(.rodata.*)
 .rodata.str1.4
                0x02034b38       0x2b ./conf.o
                                 0x3c (size before relaxing)
 *fill*         0x02034b63        0x1 ff
 .rodata.str1.4
                0x02034b64        0x7 ./core.o
                                  0x8 (size before relaxing)
 *fill*         0x02034b6b        0x1 ff
 .rodata.str1.4
                0x02034b6c      0xc26 ./engine.o
                                0xc2c (size before relaxing)
 *fill*         0x02035792        0x2 ff
 .rodata.str1.4
                0x02035794       0x2d ./fs.o
                                 0x3c (size before relaxing)
 *fill*         0x020357c1        0x3 ff
 .rodata.str1.4
                0x020357c4      0x1ad ./snemul_gui.o
                                0x1c4 (size before relaxing)
 *fill*         0x02035971        0x3 ff
 .rodata.str1.4
                0x02035974      0x29a ./main.o
                                0x2f8 (size before relaxing)
 *fill*         0x02035c0e        0x2 ff
 .rodata.str1.4
                0x02035c10       0x5f ./memmap.o
                                 0x60 (size before relaxing)
 *fill*         0x02035c6f        0x1 ff
 .rodata.str1.4
                0x02035c70       0xe9 ./ppu.o
                                 0xec (size before relaxing)
 *fill*         0x02035d59        0x3 ff
 .rodata.str1.4
                0x02035d5c       0x1e ./snapshot.o
                                 0x28 (size before relaxing)
 *fill*         0x02035d7a        0x2 ff
 .rodata.str1.4
                0x02035d7c        0xb ./gui.o
                                 0x10 (size before relaxing)
 *fill*         0x02035d87        0x1 ff
 .rodata.str1.4
                0x02035d88       0x27 ./ram.o
                                 0x28 (size before relaxing)
 *fill*         0x02035daf        0x1 ff
 .rodata.str1.4
                0x02035db0      0x4a0 ./snemul_str_cat.o
                                0x4c0 (size before relaxing)
 .rodata.str1.4
                0x02036250      0x36d ./snemul_str_dan.o
                                0x454 (size before relaxing)
 *fill*         0x020365bd        0x3 ff
 .rodata.str1.4
                0x020365c0      0x2a8 ./snemul_str_eng.o
                                0x42c (size before relaxing)
 .rodata.str1.4
                0x02036868      0x3cf ./snemul_str_fr.o
                                0x4b8 (size before relaxing)
 *fill*         0x02036c37        0x1 ff
 .rodata.str1.4
                0x02036c38      0x389 ./snemul_str_ger.o
                                0x4b4 (size before relaxing)
 *fill*         0x02036fc1        0x3 ff
 .rodata.str1.4
                0x02036fc4      0x3ad ./snemul_str_ita.o
                                0x4b8 (size before relaxing)
 *fill*         0x02037371        0x3 ff
 .rodata.str1.4
                0x02037374      0x360 ./snemul_str_jpn.o
                                0x428 (size before relaxing)
 .rodata.str1.4
                0x020376d4      0x388 ./snemul_str_nl.o
                                0x480 (size before relaxing)
 .rodata.str1.4
                0x02037a5c      0x394 ./snemul_str_pol.o
                                0x478 (size before relaxing)
 .rodata.str1.4
                0x02037df0      0x3a8 ./snemul_str_pt.o
                                0x4c4 (size before relaxing)
 .rodata.str1.4
                0x02038198      0x313 ./snemul_str_spa.o
                                0x4b0 (size before relaxing)
 *fill*         0x020384ab        0x1 ff
 .rodata.str1.4
                0x020384ac        0xc c:/devkitPro2007/libnds/lib\libfat.a(libfat.o)
 .rodata.str1.4
                0x00000000        0x4 c:/devkitPro2007/libnds/lib\libfat.a(partition.o)
 .rodata.str1.4
                0x020384b8       0x23 c:/devkitPro2007/libnds/lib\libfat.a(directory.o)
                                 0x28 (size before relaxing)
 *fill*         0x020384db        0x1 ff
 .rodata.str1.4
                0x020384dc       0x2c c:/devkitPro2007/libnds/lib\libnds9.a(console.o)
 .rodata.str1.4
                0x02038508        0x2 c:/devkitpro2007/devkitarm/bin/../lib/gcc/arm-eabi/4.1.1/../../../../arm-eabi/lib\libc.a(lib_a-impure.o)
                                  0x4 (size before relaxing)
 *fill*         0x0203850a        0x2 ff
 .rodata.str1.4
                0x0203850c        0xa c:/devkitpro2007/devkitarm/bin/../lib/gcc/arm-eabi/4.1.1/../../../../arm-eabi/lib\libc.a(lib_a-strtod.o)
                                 0x10 (size before relaxing)
 *fill*         0x02038516        0x2 ff
 .rodata.str1.4
                0x02038518       0x4b c:/devkitpro2007/devkitarm/bin/../lib/gcc/arm-eabi/4.1.1/../../../../arm-eabi/lib\libc.a(lib_a-vfiprintf.o)
                                 0x4c (size before relaxing)
 *fill*         0x02038563        0x1 ff
 .rodata.str1.4
                0x02038564       0x10 c:/devkitpro2007/devkitarm/bin/../lib/gcc/arm-eabi/4.1.1/../../../../arm-eabi/lib\libc.a(lib_a-vfprintf.o)
                                 0x64 (size before relaxing)
 .rodata.str1.4
                0x02038574       0x1e c:/devkitpro2007/devkitarm/bin/../lib/gcc/arm-eabi/4.1.1/../../../../arm-eabi/lib\libc.a(lib_a-wctomb_r.o)
                                 0x20 (size before relaxing)
 *fill*         0x02038592        0x2 ff
 .rodata.str1.4
                0x02038594       0x10 c:/devkitpro2007/devkitarm/bin/../lib/gcc/arm-eabi/4.1.1/../../../../arm-eabi/lib\libc.a(lib_a-dtoa.o)
                                 0x14 (size before relaxing)
 .rodata.str1.4
                0x020385a4       0x1b c:/devkitpro2007/devkitarm/bin/../lib/gcc/arm-eabi/4.1.1/../../../../arm-eabi/lib\libc.a(lib_a-gdtoa-gethex.o)
                                 0x1c (size before relaxing)
 *fill*         0x020385bf        0x1 ff
 .rodata.str1.4
                0x020385c0        0xb c:/devkitpro2007/devkitarm/bin/../lib/gcc/arm-eabi/4.1.1/../../../../arm-eabi/lib\libc.a(lib_a-locale.o)
                                 0x18 (size before relaxing)
 .rodata.str1.4
                0x00000000        0x4 c:/devkitpro2007/devkitarm/bin/../lib/gcc/arm-eabi/4.1.1/../../../../arm-eabi/lib\libc.a(lib_a-mbrtowc.o)
 *fill*         0x020385cb        0x1 ff
 .rodata.str1.4
                0x020385cc        0x8 c:/devkitpro2007/devkitarm/bin/../lib/gcc/arm-eabi/4.1.1/../../../../arm-eabi/lib\libsysbase.a(iosupport.o)
 *(.gnu.linkonce.r*)
                0x020385d4                . = ALIGN (0x4)

.ARM.extab
 *(.ARM.extab* .gnu.linkonce.armextab.*)
                0x020385d4                __exidx_start = .

.ARM.exidx
 *(.ARM.exidx* .gnu.linkonce.armexidx.*)
                0x020385d4                __exidx_end = .
                0x020385d4                . = ALIGN (0x4)
                0x020385d4                PROVIDE (__preinit_array_start, .)

.preinit_array
 *(.preinit_array)
                0x020385d4                PROVIDE (__preinit_array_end, .)
                0x020385d4                PROVIDE (__init_array_start, .)

.init_array     0x020385d4        0x4
 *(.init_array)
 .init_array    0x020385d4        0x4 c:/devkitpro2007/devkitarm/bin/../lib/gcc/arm-eabi/4.1.1/crtbegin.o
                0x020385d8                PROVIDE (__init_array_end, .)
                0x020385d8                PROVIDE (__fini_array_start, .)

.fini_array     0x020385d8        0x4
 *(.fini_array)
 .fini_array    0x020385d8        0x4 c:/devkitpro2007/devkitarm/bin/../lib/gcc/arm-eabi/4.1.1/crtbegin.o
                0x020385dc                PROVIDE (__fini_array_end, .)

.ctors          0x020385dc        0x0
 *crtbegin.o(.ctors)
 *(EXCLUDE_FILE(*crtend.o) .ctors)
 *(SORT(.ctors.*))
 *(.ctors)
                0x020385dc                . = ALIGN (0x4)

.dtors          0x020385dc        0x0
 *crtbegin.o(.dtors)
 *(EXCLUDE_FILE(*crtend.o) .dtors)
 *(SORT(.dtors.*))
 *(.dtors)
                0x020385dc                . = ALIGN (0x4)

.eh_frame       0x020385dc        0x4
 *(.eh_frame)
 .eh_frame      0x020385dc        0x0 c:/devkitpro2007/devkitarm/bin/../lib/gcc/arm-eabi/4.1.1/crtbegin.o
 .eh_frame      0x020385dc        0x4 c:/devkitpro2007/devkitarm/bin/../lib/gcc/arm-eabi/4.1.1/crtend.o
                0x020385e0                . = ALIGN (0x4)

.gcc_except_table
                0x020385e0        0x0
 *(.gcc_except_table)
                0x020385e0                . = ALIGN (0x4)

.jcr            0x020385e0        0x4
 *(.jcr)
 .jcr           0x020385e0        0x0 c:/devkitpro2007/devkitarm/bin/../lib/gcc/arm-eabi/4.1.1/crtbegin.o
 .jcr           0x020385e0        0x4 c:/devkitpro2007/devkitarm/bin/../lib/gcc/arm-eabi/4.1.1/crtend.o

.got
 *(.got.plt)
 *(.got)
 *(.rel.got)

.ewram          0x020385e4        0x0
                0x020385e4                __ewram_start = <code 342> (.)
 *(.ewram)
 *ewram.*(.text)
                0x020385e4                . = ALIGN (0x4)

.data           0x020385e4     0x6918
                0x020385e4                __data_start = <code 342> (.)
 *(.data)
 .data          0x020385e4        0x0 c:/devkitpro2007/devkitarm/bin/../lib/gcc/arm-eabi/4.1.1/../../../../arm-eabi/lib/ds_arm9_crt0.o
 .data          0x020385e4        0x0 c:/devkitpro2007/devkitarm/bin/../lib/gcc/arm-eabi/4.1.1/crti.o
 .data          0x020385e4        0x4 c:/devkitpro2007/devkitarm/bin/../lib/gcc/arm-eabi/4.1.1/crtbegin.o
                0x020385e4                __dso_handle
 .data          0x020385e8        0x4 ./SNES_global.o
                0x020385e8                APU2
 .data          0x020385ec        0x0 ./apu.o
 .data          0x020385ec        0x0 ./conf.o
 .data          0x020385ec      0x240 ./core.o
                0x020385ec                IOWriteWord_PPU
 .data          0x0203882c        0x0 ./crc32.o
 .data          0x0203882c        0x0 ./engine.o
 .data          0x0203882c        0x4 ./fs.o
 .data          0x02038830        0x0 ./snemul_gui.o
 .data          0x02038830        0x0 ./intr.o
 .data          0x02038830       0x3c ./main.o
                0x02038844                LayersConf
                0x02038830                _offsetY_tab
                0x02038840                APU_MAX
 .data          0x0203886c        0x0 ./memmap.o
 .data          0x0203886c      0x100 ./opcodes.o
                0x0203886c                OpcShortLoop
 .data          0x0203896c        0x0 ./opcodes2.o
 .data          0x0203896c        0x0 ./ppu.o
 .data          0x0203896c        0x0 ./snapshot.o
 .data          0x0203896c        0x0 ./snes.o
 .data          0x0203896c        0x0 ./touch.o
 .data          0x0203896c        0x0 ./gui.o
 .data          0x0203896c       0x3a ./gui_font.o
                0x0203896c                g_katana_jisx0201_conv
 .data          0x020389a6        0x0 ./gui_widgets.o
 *fill*         0x020389a6        0x2 ff
 .data          0x020389a8     0x1020 ./katakana_12.o
                0x02038b20                katakana_12_font
                0x020389a8                font_pj_katakana_12
 .data          0x020399c8     0x17e4 ./smallfont_7.o
                0x020399c8                smallfont_7
                0x02039dc8                smallfont_7_font
 .data          0x0203b1ac     0x1da0 ./trebuchet_9.o
                0x0203b1ac                font_trebuchet_ms_9
                0x0203b5ac                trebuchet_9_font
 .data          0x0203cf4c        0x0 ./input.o
 .data          0x0203cf4c       0x18 ./ram.o
                0x0203cf4c                _types
 .data          0x0203cf64      0x1b4 ./snemul_str_cat.o
                0x0203cf64                g_snemulds_str_cat
 .data          0x0203d118      0x1b4 ./snemul_str_dan.o
                0x0203d118                g_snemulds_str_dan
 .data          0x0203d2cc      0x1b4 ./snemul_str_eng.o
                0x0203d2cc                g_snemulds_str_eng
 .data          0x0203d480      0x1b4 ./snemul_str_fr.o
                0x0203d480                g_snemulds_str_fr
 .data          0x0203d634      0x1b4 ./snemul_str_ger.o
                0x0203d634                g_snemulds_str_ger
 .data          0x0203d7e8      0x1b4 ./snemul_str_ita.o
                0x0203d7e8                g_snemulds_str_ita
 .data          0x0203d99c      0x1b4 ./snemul_str_jpn.o
                0x0203d99c                g_snemulds_str_jpn
 .data          0x0203db50      0x1b4 ./snemul_str_nl.o
                0x0203db50                g_snemulds_str_nl
 .data          0x0203dd04      0x1b4 ./snemul_str_pol.o
                0x0203dd04                g_snemulds_str_pol
 .data          0x0203deb8      0x1b4 ./snemul_str_pt.o
                0x0203deb8                g_snemulds_str_pt
 .data          0x0203e06c      0x1b4 ./snemul_str_spa.o
                0x0203e06c                g_snemulds_str_spa
 .data          0x0203e220        0x0 c:/devkitPro2007/libnds/lib\libfat.a(libfat.o)
 .data          0x0203e220        0x4 c:/devkitPro2007/libnds/lib\libfat.a(partition.o)
                0x0203e220                DEVICE_NAME
 .data          0x0203e224       0x20 c:/devkitPro2007/libnds/lib\libfat.a(disc.o)
                0x0203e224                ioInterfaces
 .data          0x0203e244        0x0 c:/devkitPro2007/libnds/lib\libfat.a(io_m3cf.o)
 .data          0x0203e244        0x0 c:/devkitPro2007/libnds/lib\libfat.a(io_m3sd.o)
 .data          0x0203e244        0x0 c:/devkitPro2007/libnds/lib\libfat.a(io_mpcf.o)
 .data          0x0203e244        0x0 c:/devkitPro2007/libnds/lib\libfat.a(io_njsd.o)
 .data          0x0203e244        0xc c:/devkitPro2007/libnds/lib\libfat.a(io_nmmc.o)
                0x0203e244                _NMMC_spi_freq
                0x0203e248                selectMMC_command
 .data          0x0203e250        0x0 c:/devkitPro2007/libnds/lib\libfat.a(io_sccf.o)
 .data          0x0203e250        0x0 c:/devkitPro2007/libnds/lib\libfat.a(io_scsd.o)
 .data          0x0203e250        0x0 c:/devkitPro2007/libnds/lib\libfat.a(io_sd_common.o)
 .data          0x0203e250        0x0 c:/devkitPro2007/libnds/lib\libfat.a(io_dldi.o)
 .data          0x0203e250        0x0 c:/devkitPro2007/libnds/lib\libfat.a(io_scsd_s.o)
 .data          0x0203e250        0x0 c:/devkitPro2007/libnds/lib\libfat.a(cache.o)
 .data          0x0203e250        0x0 c:/devkitPro2007/libnds/lib\libfat.a(fatdir.o)
 .data          0x0203e250        0x0 c:/devkitPro2007/libnds/lib\libfat.a(fatfile.o)
 .data          0x0203e250        0x0 c:/devkitPro2007/libnds/lib\libfat.a(file_allocation_table.o)
 .data          0x0203e250        0x0 c:/devkitPro2007/libnds/lib\libfat.a(filetime.o)
 .data          0x0203e250        0x0 c:/devkitPro2007/libnds/lib\libfat.a(io_cf_common.o)
 .data          0x0203e250        0x0 c:/devkitPro2007/libnds/lib\libfat.a(io_m3_common.o)
 .data          0x0203e250        0x0 c:/devkitPro2007/libnds/lib\libfat.a(io_sc_common.o)
 .data          0x0203e250        0x0 c:/devkitPro2007/libnds/lib\libfat.a(directory.o)
 .data          0x0203e250        0x0 c:/devkitPro2007/libnds/lib\libnds9.a(console.o)
 .data          0x0203e250        0x3 c:/devkitPro2007/libnds/lib\libnds9.a(keys.o)
 .data          0x0203e253        0x0 c:/devkitPro2007/libnds/lib\libnds9.a(video.o)
 .data          0x0203e253        0x0 c:/devkitPro2007/libnds/lib\libnds9.a(card.o)
 .data          0x0203e253        0x0 c:/devkitPro2007/libnds/lib\libnds9.a(interrupts.o)
 .data          0x0203e253        0x0 c:/devkitPro2007/libnds/lib\libnds9.a(exceptionHandler.o)
 .data          0x0203e253        0x0 c:/devkitPro2007/libnds/lib\libnds9.a(biosCalls.o)
 .data          0x0203e253        0x0 c:/devkitPro2007/libnds/lib\libnds9.a(interruptDispatcher.o)
 .data          0x0203e253        0x0 c:/devkitPro2007/libnds/lib\libnds9.a(default_font.o)
 .data          0x0203e253        0x0 c:/devkitpro2007/devkitarm/bin/../lib/gcc/arm-eabi/4.1.1\libgcc.a(_udivsi3.o)
 .data          0x0203e253        0x0 c:/devkitpro2007/devkitarm/bin/../lib/gcc/arm-eabi/4.1.1\libgcc.a(_divsi3.o)
 .data          0x0203e253        0x0 c:/devkitpro2007/devkitarm/bin/../lib/gcc/arm-eabi/4.1.1\libgcc.a(_dvmd_tls.o)
 .data          0x0203e253        0x0 c:/devkitpro2007/devkitarm/bin/../lib/gcc/arm-eabi/4.1.1\libgcc.a(_call_via_rX.o)
 .data          0x0203e253        0x0 c:/devkitpro2007/devkitarm/bin/../lib/gcc/arm-eabi/4.1.1\libgcc.a(_addsubdf3.o)
 .data          0x0203e253        0x0 c:/devkitpro2007/devkitarm/bin/../lib/gcc/arm-eabi/4.1.1\libgcc.a(_truncdfsf2.o)
 .data          0x0203e253        0x0 c:/devkitpro2007/devkitarm/bin/../lib/gcc/arm-eabi/4.1.1/../../../../arm-eabi/lib\libc.a(lib_a-atof.o)
 *fill*         0x0203e253        0x1 ff
 .data          0x0203e254        0x4 c:/devkitpro2007/devkitarm/bin/../lib/gcc/arm-eabi/4.1.1/../../../../arm-eabi/lib\libc.a(lib_a-ctype_.o)
                0x0203e254                __ctype_ptr
 .data          0x0203e258        0x0 c:/devkitpro2007/devkitarm/bin/../lib/gcc/arm-eabi/4.1.1/../../../../arm-eabi/lib\libc.a(lib_a-fclose.o)
 .data          0x0203e258        0x0 c:/devkitpro2007/devkitarm/bin/../lib/gcc/arm-eabi/4.1.1/../../../../arm-eabi/lib\libc.a(lib_a-fflush.o)
 .data          0x0203e258        0x0 c:/devkitpro2007/devkitarm/bin/../lib/gcc/arm-eabi/4.1.1/../../../../arm-eabi/lib\libc.a(lib_a-findfp.o)
 .data          0x0203e258        0x0 c:/devkitpro2007/devkitarm/bin/../lib/gcc/arm-eabi/4.1.1/../../../../arm-eabi/lib\libc.a(lib_a-fopen.o)
 .data          0x0203e258        0x0 c:/devkitpro2007/devkitarm/bin/../lib/gcc/arm-eabi/4.1.1/../../../../arm-eabi/lib\libc.a(lib_a-fputc.o)
 .data          0x0203e258        0x0 c:/devkitpro2007/devkitarm/bin/../lib/gcc/arm-eabi/4.1.1/../../../../arm-eabi/lib\libc.a(lib_a-fputs.o)
 .data          0x0203e258        0x0 c:/devkitpro2007/devkitarm/bin/../lib/gcc/arm-eabi/4.1.1/../../../../arm-eabi/lib\libc.a(lib_a-fread.o)
 .data          0x0203e258        0x0 c:/devkitpro2007/devkitarm/bin/../lib/gcc/arm-eabi/4.1.1/../../../../arm-eabi/lib\libc.a(lib_a-freer.o)
 .data          0x0203e258        0x0 c:/devkitpro2007/devkitarm/bin/../lib/gcc/arm-eabi/4.1.1/../../../../arm-eabi/lib\libc.a(lib_a-fseek.o)
 .data          0x0203e258        0x0 c:/devkitpro2007/devkitarm/bin/../lib/gcc/arm-eabi/4.1.1/../../../../arm-eabi/lib\libc.a(lib_a-fstatr.o)
 .data          0x0203e258        0x0 c:/devkitpro2007/devkitarm/bin/../lib/gcc/arm-eabi/4.1.1/../../../../arm-eabi/lib\libc.a(lib_a-ftell.o)
 .data          0x0203e258        0x0 c:/devkitpro2007/devkitarm/bin/../lib/gcc/arm-eabi/4.1.1/../../../../arm-eabi/lib\libc.a(lib_a-fvwrite.o)
 .data          0x0203e258        0x0 c:/devkitpro2007/devkitarm/bin/../lib/gcc/arm-eabi/4.1.1/../../../../arm-eabi/lib\libc.a(lib_a-fwalk.o)
 .data          0x0203e258        0x0 c:/devkitpro2007/devkitarm/bin/../lib/gcc/arm-eabi/4.1.1/../../../../arm-eabi/lib\libc.a(lib_a-fwrite.o)
 .data          0x0203e258      0x418 c:/devkitpro2007/devkitarm/bin/../lib/gcc/arm-eabi/4.1.1/../../../../arm-eabi/lib\libc.a(lib_a-impure.o)
                0x0203e258                _impure_ptr
 .data          0x0203e670        0x0 c:/devkitpro2007/devkitarm/bin/../lib/gcc/arm-eabi/4.1.1/../../../../arm-eabi/lib\libc.a(lib_a-init.o)
 .data          0x0203e670        0x0 c:/devkitpro2007/devkitarm/bin/../lib/gcc/arm-eabi/4.1.1/../../../../arm-eabi/lib\libc.a(lib_a-iprintf.o)
 .data          0x0203e670        0x0 c:/devkitpro2007/devkitarm/bin/../lib/gcc/arm-eabi/4.1.1/../../../../arm-eabi/lib\libc.a(lib_a-makebuf.o)
 .data          0x0203e670        0x0 c:/devkitpro2007/devkitarm/bin/../lib/gcc/arm-eabi/4.1.1/../../../../arm-eabi/lib\libc.a(lib_a-malloc.o)
 .data          0x0203e670      0x410 c:/devkitpro2007/devkitarm/bin/../lib/gcc/arm-eabi/4.1.1/../../../../arm-eabi/lib\libc.a(lib_a-mallocr.o)
                0x0203ea7c                __malloc_sbrk_base
                0x0203e670                __malloc_av_
                0x0203ea78                __malloc_trim_threshold
 .data          0x0203ea80        0x0 c:/devkitpro2007/devkitarm/bin/../lib/gcc/arm-eabi/4.1.1/../../../../arm-eabi/lib\libc.a(lib_a-memchr.o)
 .data          0x0203ea80        0x0 c:/devkitpro2007/devkitarm/bin/../lib/gcc/arm-eabi/4.1.1/../../../../arm-eabi/lib\libc.a(lib_a-memcpy.o)
 .data          0x0203ea80        0x0 c:/devkitpro2007/devkitarm/bin/../lib/gcc/arm-eabi/4.1.1/../../../../arm-eabi/lib\libc.a(lib_a-memmove.o)
 .data          0x0203ea80        0x0 c:/devkitpro2007/devkitarm/bin/../lib/gcc/arm-eabi/4.1.1/../../../../arm-eabi/lib\libc.a(lib_a-memset.o)
 .data          0x0203ea80        0x0 c:/devkitpro2007/devkitarm/bin/../lib/gcc/arm-eabi/4.1.1/../../../../arm-eabi/lib\libc.a(lib_a-mlock.o)
 .data          0x0203ea80        0x0 c:/devkitpro2007/devkitarm/bin/../lib/gcc/arm-eabi/4.1.1/../../../../arm-eabi/lib\libc.a(lib_a-openr.o)
 .data          0x0203ea80        0x0 c:/devkitpro2007/devkitarm/bin/../lib/gcc/arm-eabi/4.1.1/../../../../arm-eabi/lib\libc.a(lib_a-putc.o)
 .data          0x0203ea80        0x0 c:/devkitpro2007/devkitarm/bin/../lib/gcc/arm-eabi/4.1.1/../../../../arm-eabi/lib\libc.a(lib_a-qsort.o)
 .data          0x0203ea80        0x0 c:/devkitpro2007/devkitarm/bin/../lib/gcc/arm-eabi/4.1.1/../../../../arm-eabi/lib\libc.a(lib_a-reallocr.o)
 .data          0x0203ea80        0x0 c:/devkitpro2007/devkitarm/bin/../lib/gcc/arm-eabi/4.1.1/../../../../arm-eabi/lib\libc.a(lib_a-reent.o)
 .data          0x0203ea80        0x0 c:/devkitpro2007/devkitarm/bin/../lib/gcc/arm-eabi/4.1.1/../../../../arm-eabi/lib\libc.a(lib_a-refill.o)
 .data          0x0203ea80        0x0 c:/devkitpro2007/devkitarm/bin/../lib/gcc/arm-eabi/4.1.1/../../../../arm-eabi/lib\libc.a(lib_a-sbrkr.o)
 .data          0x0203ea80        0x0 c:/devkitpro2007/devkitarm/bin/../lib/gcc/arm-eabi/4.1.1/../../../../arm-eabi/lib\libc.a(lib_a-setvbuf.o)
 .data          0x0203ea80        0x0 c:/devkitpro2007/devkitarm/bin/../lib/gcc/arm-eabi/4.1.1/../../../../arm-eabi/lib\libc.a(lib_a-siscanf.o)
 .data          0x0203ea80        0x0 c:/devkitpro2007/devkitarm/bin/../lib/gcc/arm-eabi/4.1.1/../../../../arm-eabi/lib\libc.a(lib_a-snprintf.o)
 .data          0x0203ea80        0x0 c:/devkitpro2007/devkitarm/bin/../lib/gcc/arm-eabi/4.1.1/../../../../arm-eabi/lib\libc.a(lib_a-sprintf.o)
 .data          0x0203ea80        0x0 c:/devkitpro2007/devkitarm/bin/../lib/gcc/arm-eabi/4.1.1/../../../../arm-eabi/lib\libc.a(lib_a-stdio.o)
 .data          0x0203ea80        0x0 c:/devkitpro2007/devkitarm/bin/../lib/gcc/arm-eabi/4.1.1/../../../../arm-eabi/lib\libc.a(lib_a-strcasecmp.o)
 .data          0x0203ea80        0x0 c:/devkitpro2007/devkitarm/bin/../lib/gcc/arm-eabi/4.1.1/../../../../arm-eabi/lib\libc.a(lib_a-strcat.o)
 .data          0x0203ea80        0x0 c:/devkitpro2007/devkitarm/bin/../lib/gcc/arm-eabi/4.1.1/../../../../arm-eabi/lib\libc.a(lib_a-strchr.o)
 .data          0x0203ea80        0x0 c:/devkitpro2007/devkitarm/bin/../lib/gcc/arm-eabi/4.1.1/../../../../arm-eabi/lib\libc.a(lib_a-strcmp.o)
 .data          0x0203ea80        0x0 c:/devkitpro2007/devkitarm/bin/../lib/gcc/arm-eabi/4.1.1/../../../../arm-eabi/lib\libc.a(lib_a-strcpy.o)
 .data          0x0203ea80        0x0 c:/devkitpro2007/devkitarm/bin/../lib/gcc/arm-eabi/4.1.1/../../../../arm-eabi/lib\libc.a(lib_a-strlen.o)
 .data          0x0203ea80        0x0 c:/devkitpro2007/devkitarm/bin/../lib/gcc/arm-eabi/4.1.1/../../../../arm-eabi/lib\libc.a(lib_a-strncasecmp.o)
 .data          0x0203ea80        0x0 c:/devkitpro2007/devkitarm/bin/../lib/gcc/arm-eabi/4.1.1/../../../../arm-eabi/lib\libc.a(lib_a-strncmp.o)
 .data          0x0203ea80        0x0 c:/devkitpro2007/devkitarm/bin/../lib/gcc/arm-eabi/4.1.1/../../../../arm-eabi/lib\libc.a(lib_a-strncpy.o)
 .data          0x0203ea80        0x0 c:/devkitpro2007/devkitarm/bin/../lib/gcc/arm-eabi/4.1.1/../../../../arm-eabi/lib\libc.a(lib_a-strnlen.o)
 .data          0x0203ea80        0x0 c:/devkitpro2007/devkitarm/bin/../lib/gcc/arm-eabi/4.1.1/../../../../arm-eabi/lib\libc.a(lib_a-strpbrk.o)
 .data          0x0203ea80        0x0 c:/devkitpro2007/devkitarm/bin/../lib/gcc/arm-eabi/4.1.1/../../../../arm-eabi/lib\libc.a(lib_a-strrchr.o)
 .data          0x0203ea80        0x0 c:/devkitpro2007/devkitarm/bin/../lib/gcc/arm-eabi/4.1.1/../../../../arm-eabi/lib\libc.a(lib_a-strstr.o)
 .data          0x0203ea80       0x28 c:/devkitpro2007/devkitarm/bin/../lib/gcc/arm-eabi/4.1.1/../../../../arm-eabi/lib\libc.a(lib_a-strtod.o)
 .data          0x0203eaa8        0x0 c:/devkitpro2007/devkitarm/bin/../lib/gcc/arm-eabi/4.1.1/../../../../arm-eabi/lib\libc.a(lib_a-strtol.o)
 .data          0x0203eaa8        0x0 c:/devkitpro2007/devkitarm/bin/../lib/gcc/arm-eabi/4.1.1/../../../../arm-eabi/lib\libc.a(lib_a-strtoul.o)
 .data          0x0203eaa8        0x0 c:/devkitpro2007/devkitarm/bin/../lib/gcc/arm-eabi/4.1.1/../../../../arm-eabi/lib\libc.a(lib_a-strupr.o)
 .data          0x0203eaa8        0x0 c:/devkitpro2007/devkitarm/bin/../lib/gcc/arm-eabi/4.1.1/../../../../arm-eabi/lib\libc.a(lib_a-sysclose.o)
 .data          0x0203eaa8        0x0 c:/devkitpro2007/devkitarm/bin/../lib/gcc/arm-eabi/4.1.1/../../../../arm-eabi/lib\libc.a(lib_a-syslseek.o)
 .data          0x0203eaa8        0x0 c:/devkitpro2007/devkitarm/bin/../lib/gcc/arm-eabi/4.1.1/../../../../arm-eabi/lib\libc.a(lib_a-sysopen.o)
 .data          0x0203eaa8        0x0 c:/devkitpro2007/devkitarm/bin/../lib/gcc/arm-eabi/4.1.1/../../../../arm-eabi/lib\libc.a(lib_a-sysread.o)
 .data          0x0203eaa8        0x0 c:/devkitpro2007/devkitarm/bin/../lib/gcc/arm-eabi/4.1.1/../../../../arm-eabi/lib\libc.a(lib_a-toupper.o)
 .data          0x0203eaa8        0x0 c:/devkitpro2007/devkitarm/bin/../lib/gcc/arm-eabi/4.1.1/../../../../arm-eabi/lib\libc.a(lib_a-vfiprintf.o)
 .data          0x0203eaa8        0x0 c:/devkitpro2007/devkitarm/bin/../lib/gcc/arm-eabi/4.1.1/../../../../arm-eabi/lib\libc.a(lib_a-vfiscanf.o)
 .data          0x0203eaa8        0x0 c:/devkitpro2007/devkitarm/bin/../lib/gcc/arm-eabi/4.1.1/../../../../arm-eabi/lib\libc.a(lib_a-vfprintf.o)
 .data          0x0203eaa8        0x0 c:/devkitpro2007/devkitarm/bin/../lib/gcc/arm-eabi/4.1.1/../../../../arm-eabi/lib\libc.a(lib_a-vsnprintf.o)
 .data          0x0203eaa8        0x0 c:/devkitpro2007/devkitarm/bin/../lib/gcc/arm-eabi/4.1.1/../../../../arm-eabi/lib\libc.a(lib_a-wbuf.o)
 .data          0x0203eaa8        0x0 c:/devkitpro2007/devkitarm/bin/../lib/gcc/arm-eabi/4.1.1/../../../../arm-eabi/lib\libc.a(lib_a-wcrtomb.o)
 .data          0x0203eaa8        0x0 c:/devkitpro2007/devkitarm/bin/../lib/gcc/arm-eabi/4.1.1/../../../../arm-eabi/lib\libc.a(lib_a-wcsrtombs.o)
 .data          0x0203eaa8        0x0 c:/devkitpro2007/devkitarm/bin/../lib/gcc/arm-eabi/4.1.1/../../../../arm-eabi/lib\libc.a(lib_a-wctomb_r.o)
 .data          0x0203eaa8        0x0 c:/devkitpro2007/devkitarm/bin/../lib/gcc/arm-eabi/4.1.1/../../../../arm-eabi/lib\libc.a(lib_a-writer.o)
 .data          0x0203eaa8        0x0 c:/devkitpro2007/devkitarm/bin/../lib/gcc/arm-eabi/4.1.1/../../../../arm-eabi/lib\libc.a(lib_a-wsetup.o)
 .data          0x0203eaa8        0x0 c:/devkitpro2007/devkitarm/bin/../lib/gcc/arm-eabi/4.1.1/../../../../arm-eabi/lib\libc.a(lib_a-closer.o)
 .data          0x0203eaa8        0x0 c:/devkitpro2007/devkitarm/bin/../lib/gcc/arm-eabi/4.1.1/../../../../arm-eabi/lib\libc.a(lib_a-dtoa.o)
 .data          0x0203eaa8        0x0 c:/devkitpro2007/devkitarm/bin/../lib/gcc/arm-eabi/4.1.1/../../../../arm-eabi/lib\libc.a(lib_a-flags.o)
 .data          0x0203eaa8        0x0 c:/devkitpro2007/devkitarm/bin/../lib/gcc/arm-eabi/4.1.1/../../../../arm-eabi/lib\libc.a(lib_a-gdtoa-gethex.o)
 .data          0x0203eaa8        0x0 c:/devkitpro2007/devkitarm/bin/../lib/gcc/arm-eabi/4.1.1/../../../../arm-eabi/lib\libc.a(lib_a-gdtoa-hexnan.o)
 .data          0x0203eaa8        0x0 c:/devkitpro2007/devkitarm/bin/../lib/gcc/arm-eabi/4.1.1/../../../../arm-eabi/lib\libc.a(lib_a-iswspace.o)
 .data          0x0203eaa8       0x10 c:/devkitpro2007/devkitarm/bin/../lib/gcc/arm-eabi/4.1.1/../../../../arm-eabi/lib\libc.a(lib_a-locale.o)
                0x0203eaa8                __mb_cur_max
                0x0203eaac                __lc_ctype
 .data          0x0203eab8        0x0 c:/devkitpro2007/devkitarm/bin/../lib/gcc/arm-eabi/4.1.1/../../../../arm-eabi/lib\libc.a(lib_a-lseekr.o)
 .data          0x0203eab8        0x0 c:/devkitpro2007/devkitarm/bin/../lib/gcc/arm-eabi/4.1.1/../../../../arm-eabi/lib\libc.a(lib_a-mbrtowc.o)
 .data          0x0203eab8        0x0 c:/devkitpro2007/devkitarm/bin/../lib/gcc/arm-eabi/4.1.1/../../../../arm-eabi/lib\libc.a(lib_a-mbtowc_r.o)
 .data          0x0203eab8        0x0 c:/devkitpro2007/devkitarm/bin/../lib/gcc/arm-eabi/4.1.1/../../../../arm-eabi/lib\libc.a(lib_a-mprec.o)
 .data          0x0203eab8        0x0 c:/devkitpro2007/devkitarm/bin/../lib/gcc/arm-eabi/4.1.1/../../../../arm-eabi/lib\libc.a(lib_a-readr.o)
 .data          0x0203eab8        0x0 c:/devkitpro2007/devkitarm/bin/../lib/gcc/arm-eabi/4.1.1/../../../../arm-eabi/lib\libc.a(lib_a-s_isinfd.o)
 .data          0x0203eab8        0x0 c:/devkitpro2007/devkitarm/bin/../lib/gcc/arm-eabi/4.1.1/../../../../arm-eabi/lib\libc.a(lib_a-s_isnand.o)
 .data          0x0203eab8        0x0 c:/devkitpro2007/devkitarm/bin/../lib/gcc/arm-eabi/4.1.1/../../../../arm-eabi/lib\libc.a(lib_a-sccl.o)
 .data          0x0203eab8        0x0 c:/devkitpro2007/devkitarm/bin/../lib/gcc/arm-eabi/4.1.1/../../../../arm-eabi/lib\libc.a(lib_a-sf_nan.o)
 .data          0x0203eab8        0x0 c:/devkitpro2007/devkitarm/bin/../lib/gcc/arm-eabi/4.1.1/../../../../arm-eabi/lib\libc.a(lib_a-ungetc.o)
 .data          0x0203eab8        0x0 c:/devkitpro2007/devkitarm/bin/../lib/gcc/arm-eabi/4.1.1/../../../../arm-eabi/lib\libc.a(lib_a-callocr.o)
 .data          0x0203eab8        0x0 c:/devkitpro2007/devkitarm/bin/../lib/gcc/arm-eabi/4.1.1\libgcc.a(_muldivdf3.o)
 .data          0x0203eab8        0x0 c:/devkitpro2007/devkitarm/bin/../lib/gcc/arm-eabi/4.1.1\libgcc.a(_cmpdf2.o)
 .data          0x0203eab8        0x0 c:/devkitpro2007/devkitarm/bin/../lib/gcc/arm-eabi/4.1.1\libgcc.a(_fixdfsi.o)
 .data          0x0203eab8        0x0 c:/devkitpro2007/devkitarm/bin/../lib/gcc/arm-eabi/4.1.1\libgcc.a(_fixunsdfsi.o)
 .data          0x0203eab8       0x44 c:/devkitpro2007/devkitarm/bin/../lib/gcc/arm-eabi/4.1.1/../../../../arm-eabi/lib\libsysbase.a(iosupport.o)
                0x0203eab8                devoptab_list
 .data          0x0203eafc        0x0 c:/devkitpro2007/devkitarm/bin/../lib/gcc/arm-eabi/4.1.1/../../../../arm-eabi/lib\libsysbase.a(close.o)
 .data          0x0203eafc        0x0 c:/devkitpro2007/devkitarm/bin/../lib/gcc/arm-eabi/4.1.1/../../../../arm-eabi/lib\libsysbase.a(fstat.o)
 .data          0x0203eafc        0x0 c:/devkitpro2007/devkitarm/bin/../lib/gcc/arm-eabi/4.1.1/../../../../arm-eabi/lib\libsysbase.a(isatty.o)
 .data          0x0203eafc        0x0 c:/devkitpro2007/devkitarm/bin/../lib/gcc/arm-eabi/4.1.1/../../../../arm-eabi/lib\libsysbase.a(lseek.o)
 .data          0x0203eafc        0x0 c:/devkitpro2007/devkitarm/bin/../lib/gcc/arm-eabi/4.1.1/../../../../arm-eabi/lib\libsysbase.a(open.o)
 .data          0x0203eafc        0x0 c:/devkitpro2007/devkitarm/bin/../lib/gcc/arm-eabi/4.1.1/../../../../arm-eabi/lib\libsysbase.a(read.o)
 .data          0x0203eafc        0x0 c:/devkitpro2007/devkitarm/bin/../lib/gcc/arm-eabi/4.1.1/../../../../arm-eabi/lib\libsysbase.a(sbrk.o)
 .data          0x0203eafc        0x0 c:/devkitpro2007/devkitarm/bin/../lib/gcc/arm-eabi/4.1.1/../../../../arm-eabi/lib\libsysbase.a(write.o)
 .data          0x0203eafc        0x0 c:/devkitpro2007/devkitarm/bin/../lib/gcc/arm-eabi/4.1.1/../../../../arm-eabi/lib\libsysbase.a(malloc_vars.o)
 .data          0x0203eafc      0x400 c:/devkitpro2007/devkitarm/bin/../lib/gcc/arm-eabi/4.1.1/../../../../arm-eabi/lib\libsysbase.a(chdir.o)
 .data          0x0203eefc        0x0 c:/devkitpro2007/devkitarm/bin/../lib/gcc/arm-eabi/4.1.1/../../../../arm-eabi/lib\libsysbase.a(dir.o)
 .data          0x0203eefc        0x0 c:/devkitpro2007/devkitarm/bin/../lib/gcc/arm-eabi/4.1.1/crtend.o
 .data          0x0203eefc        0x0 c:/devkitpro2007/devkitarm/bin/../lib/gcc/arm-eabi/4.1.1/crtn.o
 *(.data.*)
 *(.gnu.linkonce.d*)
                0x0203eefc                . = ALIGN (0x4)
                0x0203eefc                __data_end = <code 342> (.)
                0x0203eefc                __dtcm_lma = .

.dtcm           0x0b000000     0x2db8 load address 0x0203eefc
 *(.dtcm)
 .dtcm          0x0b000000      0x438 ./SNES_global.o
                0x0b000138                DMA_PORT
                0x0b000018                PPU_PORT
                0x0b000000                SNESC
 .dtcm          0x0b000438      0x580 ./core.o
                0x0b000678                IORead_PPU
                0x0b0008b8                IOWrite_DMA
                0x0b000438                IOWrite_PPU
                0x0b000938                IORead_DMA
 .dtcm          0x0b0009b8     0x2000 ./opcodes2.o
 .dtcm          0x0b0029b8      0x400 ./ppu.o
                0x0b0029b8                bittab
 *(.dtcm.*)
                0x0b002db8                . = ALIGN (0x4)
                0x0b002db8                __dtcm_end = <code 342> (.)
                0x02041cb4                __itcm_lma = (__dtcm_lma + SIZEOF (.dtcm))

.itcm           0x01000000     0x783c load address 0x02041cb4
 *(.itcm)
 .itcm          0x01000000     0x222c ./core.o
                0x01001f0c                W210B
                0x010018e4                HDMA_write
                0x01001d7c                W2118
                0x010008c0                R213F
                0x01001270                W2112
                0x010014fc                W211B
                0x010011d8                W2110
                0x01001738                PPU_port_write
                0x01001830                DMA_port_read
                0x010000c0                W4203
                0x01000b8c                R2142
                0x010015b8                W2120
                0x01000878                R213C
                0x01000090                W4200
                0x01000354                R4212
                0x01000448                R2121
                0x01001474                W2116
                0x01000dd0                R2180
                0x01000ec0                W2103
                0x01001344                W2115
                0x01000014                IONOP_PPU_READ
                0x01001140                W210E
                0x010012bc                W2113
                0x0100045c                R213X
                0x0100206c                W2100
                0x0100008c                W4017
                0x010005f8                R2139
                0x01001074                W2108
                0x01001564                W211D
                0x010006e8                R213A
                0x0100118c                W210F
                0x01000a20                R2141
                0x01000050                W4016
                0x0100201c                W2101
                0x010010b4                W210A
                0x010015d4                W2121
                0x010014a0                W2117
                0x01001b4c                W2122
                0x01000218                R4017
                0x01000000                IONOP_DMA_READ
                0x01001580                W211E
                0x010014d4                W211A
                0x01001530                W211C
                0x01001034                W2107
                0x010004cc                R2137
                0x01002178                W420B
                0x01000548                R2138
                0x010007e4                R213B
                0x01001fb0                W2109
                0x01000f2c                W2104
                0x010017a4                DMA_port_write
                0x01000304                R4211
                0x0100089c                R213D
                0x010001a0                R4016
                0x01000e68                W2102
                0x0100159c                W211F
                0x01001224                W2111
                0x01000c98                R2143
                0x01000028                IONOP_PPU_WRITE
                0x010020c4                W420C
                0x01001f68                W2105
                0x010000e8                W4206
                0x01001768                PPU_port_read
                0x010008e4                R2140
                0x01001eb0                W210C
                0x0100003c                IONOP_DMA_WRITE
                0x01001c2c                W2119
                0x01001300                W2114
                0x0100016c                W4207
                0x01000190                W4208
                0x01000220                R4210
                0x010015e8                W2132
                0x0100167c                W2133
                0x010016a4                W2180
                0x010010f4                W210D
 .itcm          0x0100222c      0x574 ./engine.o
                0x0100222c                go
 .itcm          0x010027a0       0x40 ./intr.o
                0x010027a0                IntrHandlerAsm
                0x010027bc                MemCpy16
 .itcm          0x010027e0       0xf8 ./main.o
                0x01002854                Hblank
                0x010027e0                Vblank
 .itcm          0x010028d8      0x808 ./memmap.o
                0x01002fc8                mem_getword
                0x010029f8                IO_setword
                0x01002c14                IO_getword
                0x01002d28                IO_getbyte
                0x0100297c                mem_removeCacheBlock
                0x01002f54                mem_setword
                0x01003028                mem_setbyte
                0x01003090                mem_getbyte
                0x010028d8                mem_setCacheBlock
                0x01002dd8                mem_checkReload
                0x01002b4c                IO_setbyte
 .itcm          0x010030e0       0xf4 ./opcodes.o
                0x01003160                pullb
                0x01003190                pullw
                0x010030e0                pushb
                0x0100310c                pushw
 *fill*         0x010031d4        0xc ff
 .itcm          0x010031e0     0x38b0 ./opcodes2.o
                0x01006a08                D
                0x01006a34                CPU_log
                0x01006a18                PCptr
                0x01006a0c                SaveR6
                0x010068ec                CPU_update
                0x01006a24                A
                0x01006934                CPU_goto2
                0x01006a20                Y
                0x01006a10                S
                0x01006a30                BRKaddress
                0x01004ecc                SnesB
                0x0100696c                CPU_init
                0x01006a2c                COPaddress
                0x01006a38                PC
                0x01005ef0                CPU_NextCycles
                0x01006540                SnesPCOffset
                0x01005ef8                CPU_LoopAddress
                0x01006a4c                AsmDebug
                0x01005eec                CPU_LoopSpeedHacks
                0x01006a40                DB
                0x01006a48                Cycles
                0x01006a3c                PB
                0x01006a44                P
                0x01006a14                SaveR8
                0x01005ef4                CPU_WaitAddress
                0x01006a1c                X
 .itcm          0x01006a90      0xc1c ./ppu.o
                0x01006bf4                PPU_updateGFX
                0x01006d60                draw_plane
                0x01006a90                check_tile
 .itcm          0x010076ac       0xc8 c:/devkitPro2007/libnds/lib\libnds9.a(interrupts.o)
                0x010076ac                irqTable
 .itcm          0x01007774       0xc8 c:/devkitPro2007/libnds/lib\libnds9.a(interruptDispatcher.o)
                0x01007774                IntrMain
 *itcm.*(.text)
                0x0100783c                . = ALIGN (0x4)
                0x0100783c                __itcm_end = <code 342> (.)

.sbss           0x0b002db8        0x0
                0x0b002db8                __sbss_start = <code 342> (.)
                0x0b002db8                __sbss_start__ = <code 342> (.)
 *(.sbss)
                0x0b002db8                . = ALIGN (0x4)
                0x0b002db8                __sbss_end = <code 342> (.)
                0x020494f0                __bss_lma = (__itcm_lma + SIZEOF (.itcm))
                0x020494f0                __appended_data = (__itcm_lma + SIZEOF (.itcm))

.bss            0x020494f0    0x11818 load address 0x020494f0
                0x020494f0                __bss_start = <code 342> (.)
                0x020494f0                __bss_start__ = <code 342> (.)
 *(.dynbss)
 *(.gnu.linkonce.b*)
 *(.bss*)
 .bss           0x020494f0        0x0 c:/devkitpro2007/devkitarm/bin/../lib/gcc/arm-eabi/4.1.1/../../../../arm-eabi/lib/ds_arm9_crt0.o
 .bss           0x020494f0        0x0 c:/devkitpro2007/devkitarm/bin/../lib/gcc/arm-eabi/4.1.1/crti.o
 .bss           0x020494f0       0x1c c:/devkitpro2007/devkitarm/bin/../lib/gcc/arm-eabi/4.1.1/crtbegin.o
 .bss           0x0204950c        0x0 ./SNES_global.o
 .bss           0x0204950c        0x0 ./apu.o
 .bss           0x0204950c      0x1c4 ./conf.o
 .bss           0x020496d0        0x4 ./core.o
 .bss           0x020496d4        0x4 ./crc32.o
 .bss           0x020496d8        0x0 ./engine.o
 .bss           0x020496d8      0x208 ./fs.o
                0x020496d8                g_extRAM
                0x020496dc                g_UseExtRAM
 .bss           0x020498e0        0x0 ./snemul_gui.o
 .bss           0x020498e0        0x0 ./intr.o
 .bss           0x020498e0        0x0 ./main.o
 .bss           0x020498e0        0xc ./memmap.o
                0x020498e8                ROM_paging_cur
                0x020498e4                ROM_paging_offs
                0x020498e0                ROM_paging
 .bss           0x020498ec        0x0 ./opcodes.o
 .bss           0x020498ec        0x0 ./opcodes2.o
 .bss           0x020498ec        0x4 ./ppu.o
 .bss           0x020498f0        0x0 ./snapshot.o
 .bss           0x020498f0        0x0 ./snes.o
 .bss           0x020498f0       0x30 ./touch.o
 .bss           0x02049920       0x14 ./gui.o
 .bss           0x02049934        0x0 ./gui_font.o
 .bss           0x02049934        0x0 ./gui_widgets.o
 .bss           0x02049934        0x0 ./katakana_12.o
 .bss           0x02049934        0x0 ./smallfont_7.o
 .bss           0x02049934        0x0 ./trebuchet_9.o
 .bss           0x02049934        0x4 ./input.o
                0x02049934                joypad_conf_mode
 .bss           0x02049938       0x10 ./ram.o
 .bss           0x02049948        0x0 ./snemul_str_cat.o
 .bss           0x02049948        0x0 ./snemul_str_dan.o
 .bss           0x02049948        0x0 ./snemul_str_eng.o
 .bss           0x02049948        0x0 ./snemul_str_fr.o
 .bss           0x02049948        0x0 ./snemul_str_ger.o
 .bss           0x02049948        0x0 ./snemul_str_ita.o
 .bss           0x02049948        0x0 ./snemul_str_jpn.o
 .bss           0x02049948        0x0 ./snemul_str_nl.o
 .bss           0x02049948        0x0 ./snemul_str_pol.o
 .bss           0x02049948        0x0 ./snemul_str_pt.o
 .bss           0x02049948        0x0 ./snemul_str_spa.o
 .bss           0x02049948        0x0 c:/devkitPro2007/libnds/lib\libfat.a(libfat.o)
 .bss           0x02049948       0x10 c:/devkitPro2007/libnds/lib\libfat.a(partition.o)
                0x02049948                _FAT_partitions
 .bss           0x02049958        0x0 c:/devkitPro2007/libnds/lib\libfat.a(disc.o)
 .bss           0x02049958        0x0 c:/devkitPro2007/libnds/lib\libfat.a(io_m3cf.o)
 .bss           0x02049958        0x4 c:/devkitPro2007/libnds/lib\libfat.a(io_m3sd.o)
 .bss           0x0204995c        0x0 c:/devkitPro2007/libnds/lib\libfat.a(io_mpcf.o)
 .bss           0x0204995c        0x8 c:/devkitPro2007/libnds/lib\libfat.a(io_njsd.o)
 .bss           0x02049964        0x0 c:/devkitPro2007/libnds/lib\libfat.a(io_nmmc.o)
 .bss           0x02049964        0x0 c:/devkitPro2007/libnds/lib\libfat.a(io_sccf.o)
 .bss           0x02049964        0x4 c:/devkitPro2007/libnds/lib\libfat.a(io_scsd.o)
 .bss           0x02049968        0x0 c:/devkitPro2007/libnds/lib\libfat.a(io_sd_common.o)
 .bss           0x02049968        0x0 c:/devkitPro2007/libnds/lib\libfat.a(io_dldi.o)
 .bss           0x02049968        0x0 c:/devkitPro2007/libnds/lib\libfat.a(io_scsd_s.o)
 .bss           0x02049968        0x0 c:/devkitPro2007/libnds/lib\libfat.a(cache.o)
 .bss           0x02049968        0x0 c:/devkitPro2007/libnds/lib\libfat.a(fatdir.o)
 .bss           0x02049968        0x0 c:/devkitPro2007/libnds/lib\libfat.a(fatfile.o)
 .bss           0x02049968        0x0 c:/devkitPro2007/libnds/lib\libfat.a(file_allocation_table.o)
 .bss           0x02049968        0x0 c:/devkitPro2007/libnds/lib\libfat.a(filetime.o)
 .bss           0x02049968       0x24 c:/devkitPro2007/libnds/lib\libfat.a(io_cf_common.o)
                0x02049968                cfRegisters
 .bss           0x0204998c        0x0 c:/devkitPro2007/libnds/lib\libfat.a(io_m3_common.o)
 .bss           0x0204998c        0x0 c:/devkitPro2007/libnds/lib\libfat.a(io_sc_common.o)
 .bss           0x0204998c        0x0 c:/devkitPro2007/libnds/lib\libfat.a(directory.o)
 .bss           0x0204998c       0x24 c:/devkitPro2007/libnds/lib\libnds9.a(console.o)
                0x0204998c                fontBold
 .bss           0x020499b0        0x6 c:/devkitPro2007/libnds/lib\libnds9.a(keys.o)
 .bss           0x020499b6        0x0 c:/devkitPro2007/libnds/lib\libnds9.a(video.o)
 .bss           0x020499b6        0x0 c:/devkitPro2007/libnds/lib\libnds9.a(card.o)
 .bss           0x020499b6        0x0 c:/devkitPro2007/libnds/lib\libnds9.a(interrupts.o)
 .bss           0x020499b6        0x0 c:/devkitPro2007/libnds/lib\libnds9.a(exceptionHandler.o)
 .bss           0x020499b6        0x0 c:/devkitPro2007/libnds/lib\libnds9.a(biosCalls.o)
 .bss           0x020499b6        0x0 c:/devkitPro2007/libnds/lib\libnds9.a(interruptDispatcher.o)
 .bss           0x020499b6        0x0 c:/devkitPro2007/libnds/lib\libnds9.a(default_font.o)
 .bss           0x020499b6        0x0 c:/devkitpro2007/devkitarm/bin/../lib/gcc/arm-eabi/4.1.1\libgcc.a(_udivsi3.o)
 .bss           0x020499b6        0x0 c:/devkitpro2007/devkitarm/bin/../lib/gcc/arm-eabi/4.1.1\libgcc.a(_divsi3.o)
 .bss           0x020499b6        0x0 c:/devkitpro2007/devkitarm/bin/../lib/gcc/arm-eabi/4.1.1\libgcc.a(_dvmd_tls.o)
 .bss           0x020499b6        0x0 c:/devkitpro2007/devkitarm/bin/../lib/gcc/arm-eabi/4.1.1\libgcc.a(_call_via_rX.o)
 .bss           0x020499b6        0x0 c:/devkitpro2007/devkitarm/bin/../lib/gcc/arm-eabi/4.1.1\libgcc.a(_addsubdf3.o)
 .bss           0x020499b6        0x0 c:/devkitpro2007/devkitarm/bin/../lib/gcc/arm-eabi/4.1.1\libgcc.a(_truncdfsf2.o)
 .bss           0x020499b6        0x0 c:/devkitpro2007/devkitarm/bin/../lib/gcc/arm-eabi/4.1.1/../../../../arm-eabi/lib\libc.a(lib_a-atof.o)
 .bss           0x020499b6        0x0 c:/devkitpro2007/devkitarm/bin/../lib/gcc/arm-eabi/4.1.1/../../../../arm-eabi/lib\libc.a(lib_a-ctype_.o)
 .bss           0x020499b6        0x0 c:/devkitpro2007/devkitarm/bin/../lib/gcc/arm-eabi/4.1.1/../../../../arm-eabi/lib\libc.a(lib_a-fclose.o)
 .bss           0x020499b6        0x0 c:/devkitpro2007/devkitarm/bin/../lib/gcc/arm-eabi/4.1.1/../../../../arm-eabi/lib\libc.a(lib_a-fflush.o)
 .bss           0x020499b6        0x0 c:/devkitpro2007/devkitarm/bin/../lib/gcc/arm-eabi/4.1.1/../../../../arm-eabi/lib\libc.a(lib_a-findfp.o)
 .bss           0x020499b6        0x0 c:/devkitpro2007/devkitarm/bin/../lib/gcc/arm-eabi/4.1.1/../../../../arm-eabi/lib\libc.a(lib_a-fopen.o)
 .bss           0x020499b6        0x0 c:/devkitpro2007/devkitarm/bin/../lib/gcc/arm-eabi/4.1.1/../../../../arm-eabi/lib\libc.a(lib_a-fputc.o)
 .bss           0x020499b6        0x0 c:/devkitpro2007/devkitarm/bin/../lib/gcc/arm-eabi/4.1.1/../../../../arm-eabi/lib\libc.a(lib_a-fputs.o)
 .bss           0x020499b6        0x0 c:/devkitpro2007/devkitarm/bin/../lib/gcc/arm-eabi/4.1.1/../../../../arm-eabi/lib\libc.a(lib_a-fread.o)
 .bss           0x020499b6        0x0 c:/devkitpro2007/devkitarm/bin/../lib/gcc/arm-eabi/4.1.1/../../../../arm-eabi/lib\libc.a(lib_a-freer.o)
 .bss           0x020499b6        0x0 c:/devkitpro2007/devkitarm/bin/../lib/gcc/arm-eabi/4.1.1/../../../../arm-eabi/lib\libc.a(lib_a-fseek.o)
 .bss           0x020499b6        0x0 c:/devkitpro2007/devkitarm/bin/../lib/gcc/arm-eabi/4.1.1/../../../../arm-eabi/lib\libc.a(lib_a-fstatr.o)
 .bss           0x020499b6        0x0 c:/devkitpro2007/devkitarm/bin/../lib/gcc/arm-eabi/4.1.1/../../../../arm-eabi/lib\libc.a(lib_a-ftell.o)
 .bss           0x020499b6        0x0 c:/devkitpro2007/devkitarm/bin/../lib/gcc/arm-eabi/4.1.1/../../../../arm-eabi/lib\libc.a(lib_a-fvwrite.o)
 .bss           0x020499b6        0x0 c:/devkitpro2007/devkitarm/bin/../lib/gcc/arm-eabi/4.1.1/../../../../arm-eabi/lib\libc.a(lib_a-fwalk.o)
 .bss           0x020499b6        0x0 c:/devkitpro2007/devkitarm/bin/../lib/gcc/arm-eabi/4.1.1/../../../../arm-eabi/lib\libc.a(lib_a-fwrite.o)
 .bss           0x020499b6        0x0 c:/devkitpro2007/devkitarm/bin/../lib/gcc/arm-eabi/4.1.1/../../../../arm-eabi/lib\libc.a(lib_a-impure.o)
 .bss           0x020499b6        0x0 c:/devkitpro2007/devkitarm/bin/../lib/gcc/arm-eabi/4.1.1/../../../../arm-eabi/lib\libc.a(lib_a-init.o)
 .bss           0x020499b6        0x0 c:/devkitpro2007/devkitarm/bin/../lib/gcc/arm-eabi/4.1.1/../../../../arm-eabi/lib\libc.a(lib_a-iprintf.o)
 .bss           0x020499b6        0x0 c:/devkitpro2007/devkitarm/bin/../lib/gcc/arm-eabi/4.1.1/../../../../arm-eabi/lib\libc.a(lib_a-makebuf.o)
 .bss           0x020499b6        0x0 c:/devkitpro2007/devkitarm/bin/../lib/gcc/arm-eabi/4.1.1/../../../../arm-eabi/lib\libc.a(lib_a-malloc.o)
 *fill*         0x020499b6        0x2 00
 .bss           0x020499b8       0x34 c:/devkitpro2007/devkitarm/bin/../lib/gcc/arm-eabi/4.1.1/../../../../arm-eabi/lib\libc.a(lib_a-mallocr.o)
                0x020499b8                __malloc_top_pad
                0x020499bc                __malloc_max_sbrked_mem
                0x020499c4                __malloc_current_mallinfo
                0x020499c0                __malloc_max_total_mem
 .bss           0x020499ec        0x0 c:/devkitpro2007/devkitarm/bin/../lib/gcc/arm-eabi/4.1.1/../../../../arm-eabi/lib\libc.a(lib_a-memchr.o)
 .bss           0x020499ec        0x0 c:/devkitpro2007/devkitarm/bin/../lib/gcc/arm-eabi/4.1.1/../../../../arm-eabi/lib\libc.a(lib_a-memcpy.o)
 .bss           0x020499ec        0x0 c:/devkitpro2007/devkitarm/bin/../lib/gcc/arm-eabi/4.1.1/../../../../arm-eabi/lib\libc.a(lib_a-memmove.o)
 .bss           0x020499ec        0x0 c:/devkitpro2007/devkitarm/bin/../lib/gcc/arm-eabi/4.1.1/../../../../arm-eabi/lib\libc.a(lib_a-memset.o)
 .bss           0x020499ec        0x0 c:/devkitpro2007/devkitarm/bin/../lib/gcc/arm-eabi/4.1.1/../../../../arm-eabi/lib\libc.a(lib_a-mlock.o)
 .bss           0x020499ec        0x0 c:/devkitpro2007/devkitarm/bin/../lib/gcc/arm-eabi/4.1.1/../../../../arm-eabi/lib\libc.a(lib_a-openr.o)
 .bss           0x020499ec        0x0 c:/devkitpro2007/devkitarm/bin/../lib/gcc/arm-eabi/4.1.1/../../../../arm-eabi/lib\libc.a(lib_a-putc.o)
 .bss           0x020499ec        0x0 c:/devkitpro2007/devkitarm/bin/../lib/gcc/arm-eabi/4.1.1/../../../../arm-eabi/lib\libc.a(lib_a-qsort.o)
 .bss           0x020499ec        0x0 c:/devkitpro2007/devkitarm/bin/../lib/gcc/arm-eabi/4.1.1/../../../../arm-eabi/lib\libc.a(lib_a-reallocr.o)
 .bss           0x020499ec        0x0 c:/devkitpro2007/devkitarm/bin/../lib/gcc/arm-eabi/4.1.1/../../../../arm-eabi/lib\libc.a(lib_a-reent.o)
 .bss           0x020499ec        0x0 c:/devkitpro2007/devkitarm/bin/../lib/gcc/arm-eabi/4.1.1/../../../../arm-eabi/lib\libc.a(lib_a-refill.o)
 .bss           0x020499ec        0x0 c:/devkitpro2007/devkitarm/bin/../lib/gcc/arm-eabi/4.1.1/../../../../arm-eabi/lib\libc.a(lib_a-sbrkr.o)
 .bss           0x020499ec        0x0 c:/devkitpro2007/devkitarm/bin/../lib/gcc/arm-eabi/4.1.1/../../../../arm-eabi/lib\libc.a(lib_a-setvbuf.o)
 .bss           0x020499ec        0x0 c:/devkitpro2007/devkitarm/bin/../lib/gcc/arm-eabi/4.1.1/../../../../arm-eabi/lib\libc.a(lib_a-siscanf.o)
 .bss           0x020499ec        0x0 c:/devkitpro2007/devkitarm/bin/../lib/gcc/arm-eabi/4.1.1/../../../../arm-eabi/lib\libc.a(lib_a-snprintf.o)
 .bss           0x020499ec        0x0 c:/devkitpro2007/devkitarm/bin/../lib/gcc/arm-eabi/4.1.1/../../../../arm-eabi/lib\libc.a(lib_a-sprintf.o)
 .bss           0x020499ec        0x0 c:/devkitpro2007/devkitarm/bin/../lib/gcc/arm-eabi/4.1.1/../../../../arm-eabi/lib\libc.a(lib_a-stdio.o)
 .bss           0x020499ec        0x0 c:/devkitpro2007/devkitarm/bin/../lib/gcc/arm-eabi/4.1.1/../../../../arm-eabi/lib\libc.a(lib_a-strcasecmp.o)
 .bss           0x020499ec        0x0 c:/devkitpro2007/devkitarm/bin/../lib/gcc/arm-eabi/4.1.1/../../../../arm-eabi/lib\libc.a(lib_a-strcat.o)
 .bss           0x020499ec        0x0 c:/devkitpro2007/devkitarm/bin/../lib/gcc/arm-eabi/4.1.1/../../../../arm-eabi/lib\libc.a(lib_a-strchr.o)
 .bss           0x020499ec        0x0 c:/devkitpro2007/devkitarm/bin/../lib/gcc/arm-eabi/4.1.1/../../../../arm-eabi/lib\libc.a(lib_a-strcmp.o)
 .bss           0x020499ec        0x0 c:/devkitpro2007/devkitarm/bin/../lib/gcc/arm-eabi/4.1.1/../../../../arm-eabi/lib\libc.a(lib_a-strcpy.o)
 .bss           0x020499ec        0x0 c:/devkitpro2007/devkitarm/bin/../lib/gcc/arm-eabi/4.1.1/../../../../arm-eabi/lib\libc.a(lib_a-strlen.o)
 .bss           0x020499ec        0x0 c:/devkitpro2007/devkitarm/bin/../lib/gcc/arm-eabi/4.1.1/../../../../arm-eabi/lib\libc.a(lib_a-strncasecmp.o)
 .bss           0x020499ec        0x0 c:/devkitpro2007/devkitarm/bin/../lib/gcc/arm-eabi/4.1.1/../../../../arm-eabi/lib\libc.a(lib_a-strncmp.o)
 .bss           0x020499ec        0x0 c:/devkitpro2007/devkitarm/bin/../lib/gcc/arm-eabi/4.1.1/../../../../arm-eabi/lib\libc.a(lib_a-strncpy.o)
 .bss           0x020499ec        0x0 c:/devkitpro2007/devkitarm/bin/../lib/gcc/arm-eabi/4.1.1/../../../../arm-eabi/lib\libc.a(lib_a-strnlen.o)
 .bss           0x020499ec        0x0 c:/devkitpro2007/devkitarm/bin/../lib/gcc/arm-eabi/4.1.1/../../../../arm-eabi/lib\libc.a(lib_a-strpbrk.o)
 .bss           0x020499ec        0x0 c:/devkitpro2007/devkitarm/bin/../lib/gcc/arm-eabi/4.1.1/../../../../arm-eabi/lib\libc.a(lib_a-strrchr.o)
 .bss           0x020499ec        0x0 c:/devkitpro2007/devkitarm/bin/../lib/gcc/arm-eabi/4.1.1/../../../../arm-eabi/lib\libc.a(lib_a-strstr.o)
 .bss           0x020499ec        0x0 c:/devkitpro2007/devkitarm/bin/../lib/gcc/arm-eabi/4.1.1/../../../../arm-eabi/lib\libc.a(lib_a-strtod.o)
 .bss           0x020499ec        0x0 c:/devkitpro2007/devkitarm/bin/../lib/gcc/arm-eabi/4.1.1/../../../../arm-eabi/lib\libc.a(lib_a-strtol.o)
 .bss           0x020499ec        0x0 c:/devkitpro2007/devkitarm/bin/../lib/gcc/arm-eabi/4.1.1/../../../../arm-eabi/lib\libc.a(lib_a-strtoul.o)
 .bss           0x020499ec        0x0 c:/devkitpro2007/devkitarm/bin/../lib/gcc/arm-eabi/4.1.1/../../../../arm-eabi/lib\libc.a(lib_a-strupr.o)
 .bss           0x020499ec        0x0 c:/devkitpro2007/devkitarm/bin/../lib/gcc/arm-eabi/4.1.1/../../../../arm-eabi/lib\libc.a(lib_a-sysclose.o)
 .bss           0x020499ec        0x0 c:/devkitpro2007/devkitarm/bin/../lib/gcc/arm-eabi/4.1.1/../../../../arm-eabi/lib\libc.a(lib_a-syslseek.o)
 .bss           0x020499ec        0x0 c:/devkitpro2007/devkitarm/bin/../lib/gcc/arm-eabi/4.1.1/../../../../arm-eabi/lib\libc.a(lib_a-sysopen.o)
 .bss           0x020499ec        0x0 c:/devkitpro2007/devkitarm/bin/../lib/gcc/arm-eabi/4.1.1/../../../../arm-eabi/lib\libc.a(lib_a-sysread.o)
 .bss           0x020499ec        0x0 c:/devkitpro2007/devkitarm/bin/../lib/gcc/arm-eabi/4.1.1/../../../../arm-eabi/lib\libc.a(lib_a-toupper.o)
 .bss           0x020499ec        0x0 c:/devkitpro2007/devkitarm/bin/../lib/gcc/arm-eabi/4.1.1/../../../../arm-eabi/lib\libc.a(lib_a-vfiprintf.o)
 .bss           0x020499ec        0x0 c:/devkitpro2007/devkitarm/bin/../lib/gcc/arm-eabi/4.1.1/../../../../arm-eabi/lib\libc.a(lib_a-vfiscanf.o)
 .bss           0x020499ec        0x0 c:/devkitpro2007/devkitarm/bin/../lib/gcc/arm-eabi/4.1.1/../../../../arm-eabi/lib\libc.a(lib_a-vfprintf.o)
 .bss           0x020499ec        0x0 c:/devkitpro2007/devkitarm/bin/../lib/gcc/arm-eabi/4.1.1/../../../../arm-eabi/lib\libc.a(lib_a-vsnprintf.o)
 .bss           0x020499ec        0x0 c:/devkitpro2007/devkitarm/bin/../lib/gcc/arm-eabi/4.1.1/../../../../arm-eabi/lib\libc.a(lib_a-wbuf.o)
 .bss           0x020499ec        0x0 c:/devkitpro2007/devkitarm/bin/../lib/gcc/arm-eabi/4.1.1/../../../../arm-eabi/lib\libc.a(lib_a-wcrtomb.o)
 .bss           0x020499ec        0x0 c:/devkitpro2007/devkitarm/bin/../lib/gcc/arm-eabi/4.1.1/../../../../arm-eabi/lib\libc.a(lib_a-wcsrtombs.o)
 .bss           0x020499ec        0x0 c:/devkitpro2007/devkitarm/bin/../lib/gcc/arm-eabi/4.1.1/../../../../arm-eabi/lib\libc.a(lib_a-wctomb_r.o)
 .bss           0x020499ec        0x0 c:/devkitpro2007/devkitarm/bin/../lib/gcc/arm-eabi/4.1.1/../../../../arm-eabi/lib\libc.a(lib_a-writer.o)
 .bss           0x020499ec        0x0 c:/devkitpro2007/devkitarm/bin/../lib/gcc/arm-eabi/4.1.1/../../../../arm-eabi/lib\libc.a(lib_a-wsetup.o)
 .bss           0x020499ec        0x0 c:/devkitpro2007/devkitarm/bin/../lib/gcc/arm-eabi/4.1.1/../../../../arm-eabi/lib\libc.a(lib_a-closer.o)
 .bss           0x020499ec        0x0 c:/devkitpro2007/devkitarm/bin/../lib/gcc/arm-eabi/4.1.1/../../../../arm-eabi/lib\libc.a(lib_a-dtoa.o)
 .bss           0x020499ec        0x0 c:/devkitpro2007/devkitarm/bin/../lib/gcc/arm-eabi/4.1.1/../../../../arm-eabi/lib\libc.a(lib_a-flags.o)
 .bss           0x020499ec        0x0 c:/devkitpro2007/devkitarm/bin/../lib/gcc/arm-eabi/4.1.1/../../../../arm-eabi/lib\libc.a(lib_a-gdtoa-gethex.o)
 .bss           0x020499ec        0x0 c:/devkitpro2007/devkitarm/bin/../lib/gcc/arm-eabi/4.1.1/../../../../arm-eabi/lib\libc.a(lib_a-gdtoa-hexnan.o)
 .bss           0x020499ec        0x0 c:/devkitpro2007/devkitarm/bin/../lib/gcc/arm-eabi/4.1.1/../../../../arm-eabi/lib\libc.a(lib_a-iswspace.o)
 .bss           0x020499ec        0xc c:/devkitpro2007/devkitarm/bin/../lib/gcc/arm-eabi/4.1.1/../../../../arm-eabi/lib\libc.a(lib_a-locale.o)
                0x020499ec                __nlocale_changed
                0x020499f0                __mlocale_changed
                0x020499f4                _PathLocale
 .bss           0x020499f8        0x0 c:/devkitpro2007/devkitarm/bin/../lib/gcc/arm-eabi/4.1.1/../../../../arm-eabi/lib\libc.a(lib_a-lseekr.o)
 .bss           0x020499f8        0x0 c:/devkitpro2007/devkitarm/bin/../lib/gcc/arm-eabi/4.1.1/../../../../arm-eabi/lib\libc.a(lib_a-mbrtowc.o)
 .bss           0x020499f8        0x0 c:/devkitpro2007/devkitarm/bin/../lib/gcc/arm-eabi/4.1.1/../../../../arm-eabi/lib\libc.a(lib_a-mbtowc_r.o)
 .bss           0x020499f8        0x0 c:/devkitpro2007/devkitarm/bin/../lib/gcc/arm-eabi/4.1.1/../../../../arm-eabi/lib\libc.a(lib_a-mprec.o)
 .bss           0x020499f8        0x0 c:/devkitpro2007/devkitarm/bin/../lib/gcc/arm-eabi/4.1.1/../../../../arm-eabi/lib\libc.a(lib_a-readr.o)
 .bss           0x020499f8        0x0 c:/devkitpro2007/devkitarm/bin/../lib/gcc/arm-eabi/4.1.1/../../../../arm-eabi/lib\libc.a(lib_a-s_isinfd.o)
 .bss           0x020499f8        0x0 c:/devkitpro2007/devkitarm/bin/../lib/gcc/arm-eabi/4.1.1/../../../../arm-eabi/lib\libc.a(lib_a-s_isnand.o)
 .bss           0x020499f8        0x0 c:/devkitpro2007/devkitarm/bin/../lib/gcc/arm-eabi/4.1.1/../../../../arm-eabi/lib\libc.a(lib_a-sccl.o)
 .bss           0x020499f8        0x0 c:/devkitpro2007/devkitarm/bin/../lib/gcc/arm-eabi/4.1.1/../../../../arm-eabi/lib\libc.a(lib_a-sf_nan.o)
 .bss           0x020499f8        0x0 c:/devkitpro2007/devkitarm/bin/../lib/gcc/arm-eabi/4.1.1/../../../../arm-eabi/lib\libc.a(lib_a-ungetc.o)
 .bss           0x020499f8        0x0 c:/devkitpro2007/devkitarm/bin/../lib/gcc/arm-eabi/4.1.1/../../../../arm-eabi/lib\libc.a(lib_a-callocr.o)
 .bss           0x020499f8        0x0 c:/devkitpro2007/devkitarm/bin/../lib/gcc/arm-eabi/4.1.1\libgcc.a(_muldivdf3.o)
 .bss           0x020499f8        0x0 c:/devkitpro2007/devkitarm/bin/../lib/gcc/arm-eabi/4.1.1\libgcc.a(_cmpdf2.o)
 .bss           0x020499f8        0x0 c:/devkitpro2007/devkitarm/bin/../lib/gcc/arm-eabi/4.1.1\libgcc.a(_fixdfsi.o)
 .bss           0x020499f8        0x0 c:/devkitpro2007/devkitarm/bin/../lib/gcc/arm-eabi/4.1.1\libgcc.a(_fixunsdfsi.o)
 .bss           0x020499f8        0x0 c:/devkitpro2007/devkitarm/bin/../lib/gcc/arm-eabi/4.1.1/../../../../arm-eabi/lib\libsysbase.a(iosupport.o)
 .bss           0x020499f8        0x0 c:/devkitpro2007/devkitarm/bin/../lib/gcc/arm-eabi/4.1.1/../../../../arm-eabi/lib\libsysbase.a(close.o)
 .bss           0x020499f8        0x0 c:/devkitpro2007/devkitarm/bin/../lib/gcc/arm-eabi/4.1.1/../../../../arm-eabi/lib\libsysbase.a(fstat.o)
 .bss           0x020499f8        0x0 c:/devkitpro2007/devkitarm/bin/../lib/gcc/arm-eabi/4.1.1/../../../../arm-eabi/lib\libsysbase.a(isatty.o)
 .bss           0x020499f8        0x0 c:/devkitpro2007/devkitarm/bin/../lib/gcc/arm-eabi/4.1.1/../../../../arm-eabi/lib\libsysbase.a(lseek.o)
 .bss           0x020499f8        0x0 c:/devkitpro2007/devkitarm/bin/../lib/gcc/arm-eabi/4.1.1/../../../../arm-eabi/lib\libsysbase.a(open.o)
 .bss           0x020499f8        0x0 c:/devkitpro2007/devkitarm/bin/../lib/gcc/arm-eabi/4.1.1/../../../../arm-eabi/lib\libsysbase.a(read.o)
 .bss           0x020499f8        0x4 c:/devkitpro2007/devkitarm/bin/../lib/gcc/arm-eabi/4.1.1/../../../../arm-eabi/lib\libsysbase.a(sbrk.o)
 .bss           0x020499fc        0x0 c:/devkitpro2007/devkitarm/bin/../lib/gcc/arm-eabi/4.1.1/../../../../arm-eabi/lib\libsysbase.a(write.o)
 .bss           0x020499fc        0x8 c:/devkitpro2007/devkitarm/bin/../lib/gcc/arm-eabi/4.1.1/../../../../arm-eabi/lib\libsysbase.a(malloc_vars.o)
                0x02049a00                fake_heap_start
                0x020499fc                fake_heap_end
 .bss           0x02049a04        0x0 c:/devkitpro2007/devkitarm/bin/../lib/gcc/arm-eabi/4.1.1/../../../../arm-eabi/lib\libsysbase.a(chdir.o)
 .bss           0x02049a04        0x0 c:/devkitpro2007/devkitarm/bin/../lib/gcc/arm-eabi/4.1.1/../../../../arm-eabi/lib\libsysbase.a(dir.o)
 .bss           0x02049a04        0x0 c:/devkitpro2007/devkitarm/bin/../lib/gcc/arm-eabi/4.1.1/crtend.o
 .bss           0x02049a04        0x0 c:/devkitpro2007/devkitarm/bin/../lib/gcc/arm-eabi/4.1.1/crtn.o
 *(COMMON)
 COMMON         0x02049a04     0x7f48 ./SNES_global.o
                0x02049a04                CPU
                0x02049a5c                CFG
                0x02049bc0                GFX
                0x0204e878                SNES
                0x02051938                APU
 COMMON         0x0205194c        0x4 ./core.o
                0x0205194c                SPC700_emu
 COMMON         0x02051950        0x8 ./engine.o
                0x02051950                interrupted
                0x02051954                OldPC
 COMMON         0x02051958     0x7d00 ./fs.o
                0x02051958                logbuf
 COMMON         0x02059658        0x4 ./snemul_gui.o
                0x02059658                scr_main
 COMMON         0x0205965c     0x1218 ./main.o
                0x0205965c                screen_mode
                0x02059660                extlink
                0x0205a870                keys
 COMMON         0x0205a874      0x2e4 ./ppu.o
                0x0205a874                ToUpdate2b
                0x0205a93c                bittab8
                0x0205a97c                NeedFlush4b
                0x0205a980                NeedUpdate2b
                0x0205a984                NeedUpdate4b
                0x0205a988                TileZones
                0x0205aa08                ToUpdate4b
                0x0205aad0                NeedFlush2b
                0x0205aad4                Mode7TileZone
                0x0205aad8                SNESToDS_TileAddress
 COMMON         0x0205ab58       0xa8 ./gui.o
                0x0205ab58                GUI
                0x0205ab8c                PendingMessage
                0x0205ab9c                g_printfbuf
 COMMON         0x0205ac00        0x4 ./input.o
                0x0205ac00                mouse_cur_b
 COMMON         0x0205ac04        0x4 c:/devkitpro2007/devkitarm/bin/../lib/gcc/arm-eabi/4.1.1/../../../../arm-eabi/lib\libc.a(lib_a-reent.o)
                0x0205ac04                errno
 COMMON         0x0205ac08      0x100 c:/devkitpro2007/devkitarm/bin/../lib/gcc/arm-eabi/4.1.1/../../../../arm-eabi/lib\libc.a(lib_a-gdtoa-gethex.o)
                0x0205ac08                __hexdig
                0x0205ad08                . = ALIGN (0x4)
                0x0205ad08                __bss_end = <code 342> (.)
                0x0205ad08                __bss_end__ = __bss_end
                0x0205ad08                _end = .
                0x0205ad08                __end__ = .
                0x0205ad08                PROVIDE (end, _end)

.stab
 *(.stab)

.stabstr
 *(.stabstr)

.stab.excl
 *(.stab.excl)

.stab.exclstr
 *(.stab.exclstr)

.stab.index
 *(.stab.index)

.stab.indexstr
 *(.stab.indexstr)

.comment        0x00000000     0x19f2
 *(.comment)
 .comment       0x00000000       0x29 c:/devkitpro2007/devkitarm/bin/../lib/gcc/arm-eabi/4.1.1/crtbegin.o
 .comment       0x00000029       0x29 ./SNES_global.o
 .comment       0x00000052       0x29 ./apu.o
 .comment       0x0000007b       0x29 ./conf.o
 .comment       0x000000a4       0x29 ./core.o
 .comment       0x000000cd       0x29 ./crc32.o
 .comment       0x000000f6       0x29 ./engine.o
 .comment       0x0000011f       0x29 ./fs.o
 .comment       0x00000148       0x29 ./snemul_gui.o
 .comment       0x00000171       0x29 ./main.o
 .comment       0x0000019a       0x29 ./memmap.o
 .comment       0x000001c3       0x29 ./opcodes.o
 .comment       0x000001ec       0x29 ./ppu.o
 .comment       0x00000215       0x29 ./snapshot.o
 .comment       0x0000023e       0x29 ./snes.o
 .comment       0x00000267       0x29 ./touch.o
 .comment       0x00000290       0x29 ./gui.o
 .comment       0x000002b9       0x29 ./gui_font.o
 .comment       0x000002e2       0x29 ./gui_widgets.o
 .comment       0x0000030b       0x29 ./katakana_12.o
 .comment       0x00000334       0x29 ./smallfont_7.o
 .comment       0x0000035d       0x29 ./trebuchet_9.o
 .comment       0x00000386       0x29 ./input.o
 .comment       0x000003af       0x29 ./ram.o
 .comment       0x000003d8       0x29 ./snemul_str_cat.o
 .comment       0x00000401       0x29 ./snemul_str_dan.o
 .comment       0x0000042a       0x29 ./snemul_str_eng.o
 .comment       0x00000453       0x29 ./snemul_str_fr.o
 .comment       0x0000047c       0x29 ./snemul_str_ger.o
 .comment       0x000004a5       0x29 ./snemul_str_ita.o
 .comment       0x000004ce       0x29 ./snemul_str_jpn.o
 .comment       0x000004f7       0x29 ./snemul_str_nl.o
 .comment       0x00000520       0x29 ./snemul_str_pol.o
 .comment       0x00000549       0x29 ./snemul_str_pt.o
 .comment       0x00000572       0x29 ./snemul_str_spa.o
 .comment       0x0000059b       0x29 c:/devkitPro2007/libnds/lib\libfat.a(libfat.o)
 .comment       0x000005c4       0x29 c:/devkitPro2007/libnds/lib\libfat.a(partition.o)
 .comment       0x000005ed       0x29 c:/devkitPro2007/libnds/lib\libfat.a(disc.o)
 .comment       0x00000616       0x29 c:/devkitPro2007/libnds/lib\libfat.a(io_m3cf.o)
 .comment       0x0000063f       0x29 c:/devkitPro2007/libnds/lib\libfat.a(io_m3sd.o)
 .comment       0x00000668       0x29 c:/devkitPro2007/libnds/lib\libfat.a(io_mpcf.o)
 .comment       0x00000691       0x29 c:/devkitPro2007/libnds/lib\libfat.a(io_njsd.o)
 .comment       0x000006ba       0x29 c:/devkitPro2007/libnds/lib\libfat.a(io_nmmc.o)
 .comment       0x000006e3       0x29 c:/devkitPro2007/libnds/lib\libfat.a(io_sccf.o)
 .comment       0x0000070c       0x29 c:/devkitPro2007/libnds/lib\libfat.a(io_scsd.o)
 .comment       0x00000735       0x29 c:/devkitPro2007/libnds/lib\libfat.a(io_sd_common.o)
 .comment       0x0000075e       0x29 c:/devkitPro2007/libnds/lib\libfat.a(cache.o)
 .comment       0x00000787       0x29 c:/devkitPro2007/libnds/lib\libfat.a(fatdir.o)
 .comment       0x000007b0       0x29 c:/devkitPro2007/libnds/lib\libfat.a(fatfile.o)
 .comment       0x000007d9       0x29 c:/devkitPro2007/libnds/lib\libfat.a(file_allocation_table.o)
 .comment       0x00000802       0x29 c:/devkitPro2007/libnds/lib\libfat.a(filetime.o)
 .comment       0x0000082b       0x29 c:/devkitPro2007/libnds/lib\libfat.a(io_cf_common.o)
 .comment       0x00000854       0x29 c:/devkitPro2007/libnds/lib\libfat.a(io_m3_common.o)
 .comment       0x0000087d       0x29 c:/devkitPro2007/libnds/lib\libfat.a(io_sc_common.o)
 .comment       0x000008a6       0x29 c:/devkitPro2007/libnds/lib\libfat.a(directory.o)
 .comment       0x000008cf       0x29 c:/devkitPro2007/libnds/lib\libnds9.a(console.o)
 .comment       0x000008f8       0x29 c:/devkitPro2007/libnds/lib\libnds9.a(keys.o)
 .comment       0x00000921       0x29 c:/devkitPro2007/libnds/lib\libnds9.a(video.o)
 .comment       0x0000094a       0x29 c:/devkitPro2007/libnds/lib\libnds9.a(card.o)
 .comment       0x00000973       0x29 c:/devkitPro2007/libnds/lib\libnds9.a(interrupts.o)
 .comment       0x0000099c       0x29 c:/devkitpro2007/devkitarm/bin/../lib/gcc/arm-eabi/4.1.1/../../../../arm-eabi/lib\libc.a(lib_a-atof.o)
 .comment       0x000009c5       0x29 c:/devkitpro2007/devkitarm/bin/../lib/gcc/arm-eabi/4.1.1/../../../../arm-eabi/lib\libc.a(lib_a-ctype_.o)
 .comment       0x000009ee       0x29 c:/devkitpro2007/devkitarm/bin/../lib/gcc/arm-eabi/4.1.1/../../../../arm-eabi/lib\libc.a(lib_a-fclose.o)
 .comment       0x00000a17       0x29 c:/devkitpro2007/devkitarm/bin/../lib/gcc/arm-eabi/4.1.1/../../../../arm-eabi/lib\libc.a(lib_a-fflush.o)
 .comment       0x00000a40       0x29 c:/devkitpro2007/devkitarm/bin/../lib/gcc/arm-eabi/4.1.1/../../../../arm-eabi/lib\libc.a(lib_a-findfp.o)
 .comment       0x00000a69       0x29 c:/devkitpro2007/devkitarm/bin/../lib/gcc/arm-eabi/4.1.1/../../../../arm-eabi/lib\libc.a(lib_a-fopen.o)
 .comment       0x00000a92       0x29 c:/devkitpro2007/devkitarm/bin/../lib/gcc/arm-eabi/4.1.1/../../../../arm-eabi/lib\libc.a(lib_a-fputc.o)
 .comment       0x00000abb       0x29 c:/devkitpro2007/devkitarm/bin/../lib/gcc/arm-eabi/4.1.1/../../../../arm-eabi/lib\libc.a(lib_a-fputs.o)
 .comment       0x00000ae4       0x29 c:/devkitpro2007/devkitarm/bin/../lib/gcc/arm-eabi/4.1.1/../../../../arm-eabi/lib\libc.a(lib_a-fread.o)
 .comment       0x00000b0d       0x29 c:/devkitpro2007/devkitarm/bin/../lib/gcc/arm-eabi/4.1.1/../../../../arm-eabi/lib\libc.a(lib_a-freer.o)
 .comment       0x00000b36       0x29 c:/devkitpro2007/devkitarm/bin/../lib/gcc/arm-eabi/4.1.1/../../../../arm-eabi/lib\libc.a(lib_a-fseek.o)
 .comment       0x00000b5f       0x29 c:/devkitpro2007/devkitarm/bin/../lib/gcc/arm-eabi/4.1.1/../../../../arm-eabi/lib\libc.a(lib_a-fstatr.o)
 .comment       0x00000b88       0x29 c:/devkitpro2007/devkitarm/bin/../lib/gcc/arm-eabi/4.1.1/../../../../arm-eabi/lib\libc.a(lib_a-ftell.o)
 .comment       0x00000bb1       0x29 c:/devkitpro2007/devkitarm/bin/../lib/gcc/arm-eabi/4.1.1/../../../../arm-eabi/lib\libc.a(lib_a-fvwrite.o)
 .comment       0x00000bda       0x29 c:/devkitpro2007/devkitarm/bin/../lib/gcc/arm-eabi/4.1.1/../../../../arm-eabi/lib\libc.a(lib_a-fwalk.o)
 .comment       0x00000c03       0x29 c:/devkitpro2007/devkitarm/bin/../lib/gcc/arm-eabi/4.1.1/../../../../arm-eabi/lib\libc.a(lib_a-fwrite.o)
 .comment       0x00000c2c       0x29 c:/devkitpro2007/devkitarm/bin/../lib/gcc/arm-eabi/4.1.1/../../../../arm-eabi/lib\libc.a(lib_a-impure.o)
 .comment       0x00000c55       0x29 c:/devkitpro2007/devkitarm/bin/../lib/gcc/arm-eabi/4.1.1/../../../../arm-eabi/lib\libc.a(lib_a-init.o)
 .comment       0x00000c7e       0x29 c:/devkitpro2007/devkitarm/bin/../lib/gcc/arm-eabi/4.1.1/../../../../arm-eabi/lib\libc.a(lib_a-iprintf.o)
 .comment       0x00000ca7       0x29 c:/devkitpro2007/devkitarm/bin/../lib/gcc/arm-eabi/4.1.1/../../../../arm-eabi/lib\libc.a(lib_a-makebuf.o)
 .comment       0x00000cd0       0x29 c:/devkitpro2007/devkitarm/bin/../lib/gcc/arm-eabi/4.1.1/../../../../arm-eabi/lib\libc.a(lib_a-malloc.o)
 .comment       0x00000cf9       0x29 c:/devkitpro2007/devkitarm/bin/../lib/gcc/arm-eabi/4.1.1/../../../../arm-eabi/lib\libc.a(lib_a-mallocr.o)
 .comment       0x00000d22       0x29 c:/devkitpro2007/devkitarm/bin/../lib/gcc/arm-eabi/4.1.1/../../../../arm-eabi/lib\libc.a(lib_a-memchr.o)
 .comment       0x00000d4b       0x29 c:/devkitpro2007/devkitarm/bin/../lib/gcc/arm-eabi/4.1.1/../../../../arm-eabi/lib\libc.a(lib_a-memcpy.o)
 .comment       0x00000d74       0x29 c:/devkitpro2007/devkitarm/bin/../lib/gcc/arm-eabi/4.1.1/../../../../arm-eabi/lib\libc.a(lib_a-memmove.o)
 .comment       0x00000d9d       0x29 c:/devkitpro2007/devkitarm/bin/../lib/gcc/arm-eabi/4.1.1/../../../../arm-eabi/lib\libc.a(lib_a-memset.o)
 .comment       0x00000dc6       0x29 c:/devkitpro2007/devkitarm/bin/../lib/gcc/arm-eabi/4.1.1/../../../../arm-eabi/lib\libc.a(lib_a-mlock.o)
 .comment       0x00000def       0x29 c:/devkitpro2007/devkitarm/bin/../lib/gcc/arm-eabi/4.1.1/../../../../arm-eabi/lib\libc.a(lib_a-openr.o)
 .comment       0x00000e18       0x29 c:/devkitpro2007/devkitarm/bin/../lib/gcc/arm-eabi/4.1.1/../../../../arm-eabi/lib\libc.a(lib_a-putc.o)
 .comment       0x00000e41       0x29 c:/devkitpro2007/devkitarm/bin/../lib/gcc/arm-eabi/4.1.1/../../../../arm-eabi/lib\libc.a(lib_a-qsort.o)
 .comment       0x00000e6a       0x29 c:/devkitpro2007/devkitarm/bin/../lib/gcc/arm-eabi/4.1.1/../../../../arm-eabi/lib\libc.a(lib_a-reallocr.o)
 .comment       0x00000e93       0x29 c:/devkitpro2007/devkitarm/bin/../lib/gcc/arm-eabi/4.1.1/../../../../arm-eabi/lib\libc.a(lib_a-reent.o)
 .comment       0x00000ebc       0x29 c:/devkitpro2007/devkitarm/bin/../lib/gcc/arm-eabi/4.1.1/../../../../arm-eabi/lib\libc.a(lib_a-refill.o)
 .comment       0x00000ee5       0x29 c:/devkitpro2007/devkitarm/bin/../lib/gcc/arm-eabi/4.1.1/../../../../arm-eabi/lib\libc.a(lib_a-sbrkr.o)
 .comment       0x00000f0e       0x29 c:/devkitpro2007/devkitarm/bin/../lib/gcc/arm-eabi/4.1.1/../../../../arm-eabi/lib\libc.a(lib_a-setvbuf.o)
 .comment       0x00000f37       0x29 c:/devkitpro2007/devkitarm/bin/../lib/gcc/arm-eabi/4.1.1/../../../../arm-eabi/lib\libc.a(lib_a-siscanf.o)
 .comment       0x00000f60       0x29 c:/devkitpro2007/devkitarm/bin/../lib/gcc/arm-eabi/4.1.1/../../../../arm-eabi/lib\libc.a(lib_a-snprintf.o)
 .comment       0x00000f89       0x29 c:/devkitpro2007/devkitarm/bin/../lib/gcc/arm-eabi/4.1.1/../../../../arm-eabi/lib\libc.a(lib_a-sprintf.o)
 .comment       0x00000fb2       0x29 c:/devkitpro2007/devkitarm/bin/../lib/gcc/arm-eabi/4.1.1/../../../../arm-eabi/lib\libc.a(lib_a-stdio.o)
 .comment       0x00000fdb       0x29 c:/devkitpro2007/devkitarm/bin/../lib/gcc/arm-eabi/4.1.1/../../../../arm-eabi/lib\libc.a(lib_a-strcasecmp.o)
 .comment       0x00001004       0x29 c:/devkitpro2007/devkitarm/bin/../lib/gcc/arm-eabi/4.1.1/../../../../arm-eabi/lib\libc.a(lib_a-strcat.o)
 .comment       0x0000102d       0x29 c:/devkitpro2007/devkitarm/bin/../lib/gcc/arm-eabi/4.1.1/../../../../arm-eabi/lib\libc.a(lib_a-strchr.o)
 .comment       0x00001056       0x29 c:/devkitpro2007/devkitarm/bin/../lib/gcc/arm-eabi/4.1.1/../../../../arm-eabi/lib\libc.a(lib_a-strcmp.o)
 .comment       0x0000107f       0x29 c:/devkitpro2007/devkitarm/bin/../lib/gcc/arm-eabi/4.1.1/../../../../arm-eabi/lib\libc.a(lib_a-strcpy.o)
 .comment       0x000010a8       0x29 c:/devkitpro2007/devkitarm/bin/../lib/gcc/arm-eabi/4.1.1/../../../../arm-eabi/lib\libc.a(lib_a-strlen.o)
 .comment       0x000010d1       0x29 c:/devkitpro2007/devkitarm/bin/../lib/gcc/arm-eabi/4.1.1/../../../../arm-eabi/lib\libc.a(lib_a-strncasecmp.o)
 .comment       0x000010fa       0x29 c:/devkitpro2007/devkitarm/bin/../lib/gcc/arm-eabi/4.1.1/../../../../arm-eabi/lib\libc.a(lib_a-strncmp.o)
 .comment       0x00001123       0x29 c:/devkitpro2007/devkitarm/bin/../lib/gcc/arm-eabi/4.1.1/../../../../arm-eabi/lib\libc.a(lib_a-strncpy.o)
 .comment       0x0000114c       0x29 c:/devkitpro2007/devkitarm/bin/../lib/gcc/arm-eabi/4.1.1/../../../../arm-eabi/lib\libc.a(lib_a-strnlen.o)
 .comment       0x00001175       0x29 c:/devkitpro2007/devkitarm/bin/../lib/gcc/arm-eabi/4.1.1/../../../../arm-eabi/lib\libc.a(lib_a-strpbrk.o)
 .comment       0x0000119e       0x29 c:/devkitpro2007/devkitarm/bin/../lib/gcc/arm-eabi/4.1.1/../../../../arm-eabi/lib\libc.a(lib_a-strrchr.o)
 .comment       0x000011c7       0x29 c:/devkitpro2007/devkitarm/bin/../lib/gcc/arm-eabi/4.1.1/../../../../arm-eabi/lib\libc.a(lib_a-strstr.o)
 .comment       0x000011f0       0x29 c:/devkitpro2007/devkitarm/bin/../lib/gcc/arm-eabi/4.1.1/../../../../arm-eabi/lib\libc.a(lib_a-strtod.o)
 .comment       0x00001219       0x29 c:/devkitpro2007/devkitarm/bin/../lib/gcc/arm-eabi/4.1.1/../../../../arm-eabi/lib\libc.a(lib_a-strtol.o)
 .comment       0x00001242       0x29 c:/devkitpro2007/devkitarm/bin/../lib/gcc/arm-eabi/4.1.1/../../../../arm-eabi/lib\libc.a(lib_a-strtoul.o)
 .comment       0x0000126b       0x29 c:/devkitpro2007/devkitarm/bin/../lib/gcc/arm-eabi/4.1.1/../../../../arm-eabi/lib\libc.a(lib_a-strupr.o)
 .comment       0x00001294       0x29 c:/devkitpro2007/devkitarm/bin/../lib/gcc/arm-eabi/4.1.1/../../../../arm-eabi/lib\libc.a(lib_a-sysclose.o)
 .comment       0x000012bd       0x29 c:/devkitpro2007/devkitarm/bin/../lib/gcc/arm-eabi/4.1.1/../../../../arm-eabi/lib\libc.a(lib_a-syslseek.o)
 .comment       0x000012e6       0x29 c:/devkitpro2007/devkitarm/bin/../lib/gcc/arm-eabi/4.1.1/../../../../arm-eabi/lib\libc.a(lib_a-sysopen.o)
 .comment       0x0000130f       0x29 c:/devkitpro2007/devkitarm/bin/../lib/gcc/arm-eabi/4.1.1/../../../../arm-eabi/lib\libc.a(lib_a-sysread.o)
 .comment       0x00001338       0x29 c:/devkitpro2007/devkitarm/bin/../lib/gcc/arm-eabi/4.1.1/../../../../arm-eabi/lib\libc.a(lib_a-toupper.o)
 .comment       0x00001361       0x29 c:/devkitpro2007/devkitarm/bin/../lib/gcc/arm-eabi/4.1.1/../../../../arm-eabi/lib\libc.a(lib_a-vfiprintf.o)
 .comment       0x0000138a       0x29 c:/devkitpro2007/devkitarm/bin/../lib/gcc/arm-eabi/4.1.1/../../../../arm-eabi/lib\libc.a(lib_a-vfiscanf.o)
 .comment       0x000013b3       0x29 c:/devkitpro2007/devkitarm/bin/../lib/gcc/arm-eabi/4.1.1/../../../../arm-eabi/lib\libc.a(lib_a-vfprintf.o)
 .comment       0x000013dc       0x29 c:/devkitpro2007/devkitarm/bin/../lib/gcc/arm-eabi/4.1.1/../../../../arm-eabi/lib\libc.a(lib_a-vsnprintf.o)
 .comment       0x00001405       0x29 c:/devkitpro2007/devkitarm/bin/../lib/gcc/arm-eabi/4.1.1/../../../../arm-eabi/lib\libc.a(lib_a-wbuf.o)
 .comment       0x0000142e       0x29 c:/devkitpro2007/devkitarm/bin/../lib/gcc/arm-eabi/4.1.1/../../../../arm-eabi/lib\libc.a(lib_a-wcrtomb.o)
 .comment       0x00001457       0x29 c:/devkitpro2007/devkitarm/bin/../lib/gcc/arm-eabi/4.1.1/../../../../arm-eabi/lib\libc.a(lib_a-wcsrtombs.o)
 .comment       0x00001480       0x29 c:/devkitpro2007/devkitarm/bin/../lib/gcc/arm-eabi/4.1.1/../../../../arm-eabi/lib\libc.a(lib_a-wctomb_r.o)
 .comment       0x000014a9       0x29 c:/devkitpro2007/devkitarm/bin/../lib/gcc/arm-eabi/4.1.1/../../../../arm-eabi/lib\libc.a(lib_a-writer.o)
 .comment       0x000014d2       0x29 c:/devkitpro2007/devkitarm/bin/../lib/gcc/arm-eabi/4.1.1/../../../../arm-eabi/lib\libc.a(lib_a-wsetup.o)
 .comment       0x000014fb       0x29 c:/devkitpro2007/devkitarm/bin/../lib/gcc/arm-eabi/4.1.1/../../../../arm-eabi/lib\libc.a(lib_a-closer.o)
 .comment       0x00001524       0x29 c:/devkitpro2007/devkitarm/bin/../lib/gcc/arm-eabi/4.1.1/../../../../arm-eabi/lib\libc.a(lib_a-dtoa.o)
 .comment       0x0000154d       0x29 c:/devkitpro2007/devkitarm/bin/../lib/gcc/arm-eabi/4.1.1/../../../../arm-eabi/lib\libc.a(lib_a-flags.o)
 .comment       0x00001576       0x29 c:/devkitpro2007/devkitarm/bin/../lib/gcc/arm-eabi/4.1.1/../../../../arm-eabi/lib\libc.a(lib_a-gdtoa-gethex.o)
 .comment       0x0000159f       0x29 c:/devkitpro2007/devkitarm/bin/../lib/gcc/arm-eabi/4.1.1/../../../../arm-eabi/lib\libc.a(lib_a-gdtoa-hexnan.o)
 .comment       0x000015c8       0x29 c:/devkitpro2007/devkitarm/bin/../lib/gcc/arm-eabi/4.1.1/../../../../arm-eabi/lib\libc.a(lib_a-iswspace.o)
 .comment       0x000015f1       0x29 c:/devkitpro2007/devkitarm/bin/../lib/gcc/arm-eabi/4.1.1/../../../../arm-eabi/lib\libc.a(lib_a-locale.o)
 .comment       0x0000161a       0x29 c:/devkitpro2007/devkitarm/bin/../lib/gcc/arm-eabi/4.1.1/../../../../arm-eabi/lib\libc.a(lib_a-lseekr.o)
 .comment       0x00001643       0x29 c:/devkitpro2007/devkitarm/bin/../lib/gcc/arm-eabi/4.1.1/../../../../arm-eabi/lib\libc.a(lib_a-mbrtowc.o)
 .comment       0x0000166c       0x29 c:/devkitpro2007/devkitarm/bin/../lib/gcc/arm-eabi/4.1.1/../../../../arm-eabi/lib\libc.a(lib_a-mbtowc_r.o)
 .comment       0x00001695       0x29 c:/devkitpro2007/devkitarm/bin/../lib/gcc/arm-eabi/4.1.1/../../../../arm-eabi/lib\libc.a(lib_a-mprec.o)
 .comment       0x000016be       0x29 c:/devkitpro2007/devkitarm/bin/../lib/gcc/arm-eabi/4.1.1/../../../../arm-eabi/lib\libc.a(lib_a-readr.o)
 .comment       0x000016e7       0x29 c:/devkitpro2007/devkitarm/bin/../lib/gcc/arm-eabi/4.1.1/../../../../arm-eabi/lib\libc.a(lib_a-s_isinfd.o)
 .comment       0x00001710       0x29 c:/devkitpro2007/devkitarm/bin/../lib/gcc/arm-eabi/4.1.1/../../../../arm-eabi/lib\libc.a(lib_a-s_isnand.o)
 .comment       0x00001739       0x29 c:/devkitpro2007/devkitarm/bin/../lib/gcc/arm-eabi/4.1.1/../../../../arm-eabi/lib\libc.a(lib_a-sccl.o)
 .comment       0x00001762       0x29 c:/devkitpro2007/devkitarm/bin/../lib/gcc/arm-eabi/4.1.1/../../../../arm-eabi/lib\libc.a(lib_a-sf_nan.o)
 .comment       0x0000178b       0x29 c:/devkitpro2007/devkitarm/bin/../lib/gcc/arm-eabi/4.1.1/../../../../arm-eabi/lib\libc.a(lib_a-ungetc.o)
 .comment       0x000017b4       0x29 c:/devkitpro2007/devkitarm/bin/../lib/gcc/arm-eabi/4.1.1/../../../../arm-eabi/lib\libc.a(lib_a-callocr.o)
 .comment       0x000017dd       0x29 c:/devkitpro2007/devkitarm/bin/../lib/gcc/arm-eabi/4.1.1/../../../../arm-eabi/lib\libsysbase.a(iosupport.o)
 .comment       0x00001806       0x29 c:/devkitpro2007/devkitarm/bin/../lib/gcc/arm-eabi/4.1.1/../../../../arm-eabi/lib\libsysbase.a(close.o)
 .comment       0x0000182f       0x29 c:/devkitpro2007/devkitarm/bin/../lib/gcc/arm-eabi/4.1.1/../../../../arm-eabi/lib\libsysbase.a(fstat.o)
 .comment       0x00001858       0x29 c:/devkitpro2007/devkitarm/bin/../lib/gcc/arm-eabi/4.1.1/../../../../arm-eabi/lib\libsysbase.a(isatty.o)
 .comment       0x00001881       0x29 c:/devkitpro2007/devkitarm/bin/../lib/gcc/arm-eabi/4.1.1/../../../../arm-eabi/lib\libsysbase.a(lseek.o)
 .comment       0x000018aa       0x29 c:/devkitpro2007/devkitarm/bin/../lib/gcc/arm-eabi/4.1.1/../../../../arm-eabi/lib\libsysbase.a(open.o)
 .comment       0x000018d3       0x29 c:/devkitpro2007/devkitarm/bin/../lib/gcc/arm-eabi/4.1.1/../../../../arm-eabi/lib\libsysbase.a(read.o)
 .comment       0x000018fc       0x29 c:/devkitpro2007/devkitarm/bin/../lib/gcc/arm-eabi/4.1.1/../../../../arm-eabi/lib\libsysbase.a(sbrk.o)
 .comment       0x00001925       0x29 c:/devkitpro2007/devkitarm/bin/../lib/gcc/arm-eabi/4.1.1/../../../../arm-eabi/lib\libsysbase.a(write.o)
 .comment       0x0000194e       0x29 c:/devkitpro2007/devkitarm/bin/../lib/gcc/arm-eabi/4.1.1/../../../../arm-eabi/lib\libsysbase.a(malloc_vars.o)
 .comment       0x00001977       0x29 c:/devkitpro2007/devkitarm/bin/../lib/gcc/arm-eabi/4.1.1/../../../../arm-eabi/lib\libsysbase.a(chdir.o)
 .comment       0x000019a0       0x29 c:/devkitpro2007/devkitarm/bin/../lib/gcc/arm-eabi/4.1.1/../../../../arm-eabi/lib\libsysbase.a(dir.o)
 .comment       0x000019c9       0x29 c:/devkitpro2007/devkitarm/bin/../lib/gcc/arm-eabi/4.1.1/crtend.o

.debug
 *(.debug)

.line
 *(.line)

.debug_srcinfo
 *(.debug_srcinfo)

.debug_sfnames
 *(.debug_sfnames)

.debug_aranges  0x00000000      0x3b0
 *(.debug_aranges)
 .debug_aranges
                0x00000000       0x28 c:/devkitpro2007/devkitarm/bin/../lib/gcc/arm-eabi/4.1.1/crti.o
 .debug_aranges
                0x00000028       0x20 c:/devkitPro2007/libnds/lib\libfat.a(libfat.o)
 .debug_aranges
                0x00000048       0x20 c:/devkitPro2007/libnds/lib\libfat.a(partition.o)
 .debug_aranges
                0x00000068       0x20 c:/devkitPro2007/libnds/lib\libfat.a(disc.o)
 .debug_aranges
                0x00000088       0x20 c:/devkitPro2007/libnds/lib\libfat.a(io_m3cf.o)
 .debug_aranges
                0x000000a8       0x20 c:/devkitPro2007/libnds/lib\libfat.a(io_m3sd.o)
 .debug_aranges
                0x000000c8       0x20 c:/devkitPro2007/libnds/lib\libfat.a(io_mpcf.o)
 .debug_aranges
                0x000000e8       0x20 c:/devkitPro2007/libnds/lib\libfat.a(io_njsd.o)
 .debug_aranges
                0x00000108       0x20 c:/devkitPro2007/libnds/lib\libfat.a(io_nmmc.o)
 .debug_aranges
                0x00000128       0x20 c:/devkitPro2007/libnds/lib\libfat.a(io_sccf.o)
 .debug_aranges
                0x00000148       0x20 c:/devkitPro2007/libnds/lib\libfat.a(io_scsd.o)
 .debug_aranges
                0x00000168       0x20 c:/devkitPro2007/libnds/lib\libfat.a(io_sd_common.o)
 .debug_aranges
                0x00000188       0x20 c:/devkitPro2007/libnds/lib\libfat.a(io_dldi.o)
 .debug_aranges
                0x000001a8       0x20 c:/devkitPro2007/libnds/lib\libfat.a(io_scsd_s.o)
 .debug_aranges
                0x000001c8       0x20 c:/devkitPro2007/libnds/lib\libfat.a(cache.o)
 .debug_aranges
                0x000001e8       0x20 c:/devkitPro2007/libnds/lib\libfat.a(fatdir.o)
 .debug_aranges
                0x00000208       0x20 c:/devkitPro2007/libnds/lib\libfat.a(fatfile.o)
 .debug_aranges
                0x00000228       0x20 c:/devkitPro2007/libnds/lib\libfat.a(file_allocation_table.o)
 .debug_aranges
                0x00000248       0x20 c:/devkitPro2007/libnds/lib\libfat.a(filetime.o)
 .debug_aranges
                0x00000268       0x20 c:/devkitPro2007/libnds/lib\libfat.a(io_cf_common.o)
 .debug_aranges
                0x00000288       0x20 c:/devkitPro2007/libnds/lib\libfat.a(io_m3_common.o)
 .debug_aranges
                0x000002a8       0x20 c:/devkitPro2007/libnds/lib\libfat.a(io_sc_common.o)
 .debug_aranges
                0x000002c8       0x20 c:/devkitPro2007/libnds/lib\libfat.a(directory.o)
 .debug_aranges
                0x000002e8       0x20 c:/devkitPro2007/libnds/lib\libnds9.a(console.o)
 .debug_aranges
                0x00000308       0x20 c:/devkitPro2007/libnds/lib\libnds9.a(keys.o)
 .debug_aranges
                0x00000328       0x20 c:/devkitPro2007/libnds/lib\libnds9.a(video.o)
 .debug_aranges
                0x00000348       0x20 c:/devkitPro2007/libnds/lib\libnds9.a(card.o)
 .debug_aranges
                0x00000368       0x20 c:/devkitPro2007/libnds/lib\libnds9.a(interrupts.o)
 .debug_aranges
                0x00000388       0x28 c:/devkitpro2007/devkitarm/bin/../lib/gcc/arm-eabi/4.1.1/crtn.o

.debug_pubnames
                0x00000000      0xfe6
 *(.debug_pubnames)
 .debug_pubnames
                0x00000000       0xb6 c:/devkitPro2007/libnds/lib\libfat.a(libfat.o)
 .debug_pubnames
                0x000000b6      0x129 c:/devkitPro2007/libnds/lib\libfat.a(partition.o)
 .debug_pubnames
                0x000001df       0x84 c:/devkitPro2007/libnds/lib\libfat.a(disc.o)
 .debug_pubnames
                0x00000263       0x31 c:/devkitPro2007/libnds/lib\libfat.a(io_m3cf.o)
 .debug_pubnames
                0x00000294       0xd7 c:/devkitPro2007/libnds/lib\libfat.a(io_m3sd.o)
 .debug_pubnames
                0x0000036b       0x31 c:/devkitPro2007/libnds/lib\libfat.a(io_mpcf.o)
 .debug_pubnames
                0x0000039c       0xd7 c:/devkitPro2007/libnds/lib\libfat.a(io_njsd.o)
 .debug_pubnames
                0x00000473       0xc5 c:/devkitPro2007/libnds/lib\libfat.a(io_nmmc.o)
 .debug_pubnames
                0x00000538       0x31 c:/devkitPro2007/libnds/lib\libfat.a(io_sccf.o)
 .debug_pubnames
                0x00000569       0xd7 c:/devkitPro2007/libnds/lib\libfat.a(io_scsd.o)
 .debug_pubnames
                0x00000640       0x3e c:/devkitPro2007/libnds/lib\libfat.a(io_sd_common.o)
 .debug_pubnames
                0x0000067e       0xe0 c:/devkitPro2007/libnds/lib\libfat.a(cache.o)
 .debug_pubnames
                0x0000075e       0xc6 c:/devkitPro2007/libnds/lib\libfat.a(fatdir.o)
 .debug_pubnames
                0x00000824       0x75 c:/devkitPro2007/libnds/lib\libfat.a(fatfile.o)
 .debug_pubnames
                0x00000899       0x9d c:/devkitPro2007/libnds/lib\libfat.a(file_allocation_table.o)
 .debug_pubnames
                0x00000936       0x70 c:/devkitPro2007/libnds/lib\libfat.a(filetime.o)
 .debug_pubnames
                0x000009a6       0x93 c:/devkitPro2007/libnds/lib\libfat.a(io_cf_common.o)
 .debug_pubnames
                0x00000a39       0x25 c:/devkitPro2007/libnds/lib\libfat.a(io_m3_common.o)
 .debug_pubnames
                0x00000a5e       0x25 c:/devkitPro2007/libnds/lib\libfat.a(io_sc_common.o)
 .debug_pubnames
                0x00000a83      0x1a0 c:/devkitPro2007/libnds/lib\libfat.a(directory.o)
 .debug_pubnames
                0x00000c23       0x9f c:/devkitPro2007/libnds/lib\libnds9.a(console.o)
 .debug_pubnames
                0x00000cc2       0x69 c:/devkitPro2007/libnds/lib\libnds9.a(keys.o)
 .debug_pubnames
                0x00000d2b       0xf1 c:/devkitPro2007/libnds/lib\libnds9.a(video.o)
 .debug_pubnames
                0x00000e1c      0x14a c:/devkitPro2007/libnds/lib\libnds9.a(card.o)
 .debug_pubnames
                0x00000f66       0x80 c:/devkitPro2007/libnds/lib\libnds9.a(interrupts.o)

.debug_info     0x00000000     0xc864
 *(.debug_info)
 .debug_info    0x00000000       0x5b c:/devkitpro2007/devkitarm/bin/../lib/gcc/arm-eabi/4.1.1/crti.o
 .debug_info    0x0000005b     0x106e c:/devkitPro2007/libnds/lib\libfat.a(libfat.o)
 .debug_info    0x000010c9      0x8bb c:/devkitPro2007/libnds/lib\libfat.a(partition.o)
 .debug_info    0x00001984      0x3a4 c:/devkitPro2007/libnds/lib\libfat.a(disc.o)
 .debug_info    0x00001d28      0x2a0 c:/devkitPro2007/libnds/lib\libfat.a(io_m3cf.o)
 .debug_info    0x00001fc8      0x824 c:/devkitPro2007/libnds/lib\libfat.a(io_m3sd.o)
 .debug_info    0x000027ec      0x2a0 c:/devkitPro2007/libnds/lib\libfat.a(io_mpcf.o)
 .debug_info    0x00002a8c      0x9d3 c:/devkitPro2007/libnds/lib\libfat.a(io_njsd.o)
 .debug_info    0x0000345f      0xac9 c:/devkitPro2007/libnds/lib\libfat.a(io_nmmc.o)
 .debug_info    0x00003f28      0x2a0 c:/devkitPro2007/libnds/lib\libfat.a(io_sccf.o)
 .debug_info    0x000041c8      0x6c4 c:/devkitPro2007/libnds/lib\libfat.a(io_scsd.o)
 .debug_info    0x0000488c      0x299 c:/devkitPro2007/libnds/lib\libfat.a(io_sd_common.o)
 .debug_info    0x00004b25       0x8c c:/devkitPro2007/libnds/lib\libfat.a(io_dldi.o)
 .debug_info    0x00004bb1       0x8e c:/devkitPro2007/libnds/lib\libfat.a(io_scsd_s.o)
 .debug_info    0x00004c3f      0x767 c:/devkitPro2007/libnds/lib\libfat.a(cache.o)
 .debug_info    0x000053a6     0x154e c:/devkitPro2007/libnds/lib\libfat.a(fatdir.o)
 .debug_info    0x000068f4     0x19bd c:/devkitPro2007/libnds/lib\libfat.a(fatfile.o)
 .debug_info    0x000082b1      0x6f1 c:/devkitPro2007/libnds/lib\libfat.a(file_allocation_table.o)
 .debug_info    0x000089a2      0x1a5 c:/devkitPro2007/libnds/lib\libfat.a(filetime.o)
 .debug_info    0x00008b47      0x31a c:/devkitPro2007/libnds/lib\libfat.a(io_cf_common.o)
 .debug_info    0x00008e61       0xd8 c:/devkitPro2007/libnds/lib\libfat.a(io_m3_common.o)
 .debug_info    0x00008f39       0xb8 c:/devkitPro2007/libnds/lib\libfat.a(io_sc_common.o)
 .debug_info    0x00008ff1     0x113d c:/devkitPro2007/libnds/lib\libfat.a(directory.o)
 .debug_info    0x0000a12e     0x1228 c:/devkitPro2007/libnds/lib\libnds9.a(console.o)
 .debug_info    0x0000b356      0x4ea c:/devkitPro2007/libnds/lib\libnds9.a(keys.o)
 .debug_info    0x0000b840      0x579 c:/devkitPro2007/libnds/lib\libnds9.a(video.o)
 .debug_info    0x0000bdb9      0x805 c:/devkitPro2007/libnds/lib\libnds9.a(card.o)
 .debug_info    0x0000c5be      0x24b c:/devkitPro2007/libnds/lib\libnds9.a(interrupts.o)
 .debug_info    0x0000c809       0x5b c:/devkitpro2007/devkitarm/bin/../lib/gcc/arm-eabi/4.1.1/crtn.o

.debug_abbrev   0x00000000     0x2d7d
 *(.debug_abbrev)
 .debug_abbrev  0x00000000       0x10 c:/devkitpro2007/devkitarm/bin/../lib/gcc/arm-eabi/4.1.1/crti.o
 .debug_abbrev  0x00000010      0x1d4 c:/devkitPro2007/libnds/lib\libfat.a(libfat.o)
 .debug_abbrev  0x000001e4      0x264 c:/devkitPro2007/libnds/lib\libfat.a(partition.o)
 .debug_abbrev  0x00000448      0x15e c:/devkitPro2007/libnds/lib\libfat.a(disc.o)
 .debug_abbrev  0x000005a6       0xfa c:/devkitPro2007/libnds/lib\libfat.a(io_m3cf.o)
 .debug_abbrev  0x000006a0      0x2f5 c:/devkitPro2007/libnds/lib\libfat.a(io_m3sd.o)
 .debug_abbrev  0x00000995       0xfa c:/devkitPro2007/libnds/lib\libfat.a(io_mpcf.o)
 .debug_abbrev  0x00000a8f      0x2d0 c:/devkitPro2007/libnds/lib\libfat.a(io_njsd.o)
 .debug_abbrev  0x00000d5f      0x2b0 c:/devkitPro2007/libnds/lib\libfat.a(io_nmmc.o)
 .debug_abbrev  0x0000100f       0xfa c:/devkitPro2007/libnds/lib\libfat.a(io_sccf.o)
 .debug_abbrev  0x00001109      0x270 c:/devkitPro2007/libnds/lib\libfat.a(io_scsd.o)
 .debug_abbrev  0x00001379      0x10f c:/devkitPro2007/libnds/lib\libfat.a(io_sd_common.o)
 .debug_abbrev  0x00001488       0x14 c:/devkitPro2007/libnds/lib\libfat.a(io_dldi.o)
 .debug_abbrev  0x0000149c       0x14 c:/devkitPro2007/libnds/lib\libfat.a(io_scsd_s.o)
 .debug_abbrev  0x000014b0      0x1ca c:/devkitPro2007/libnds/lib\libfat.a(cache.o)
 .debug_abbrev  0x0000167a      0x303 c:/devkitPro2007/libnds/lib\libfat.a(fatdir.o)
 .debug_abbrev  0x0000197d      0x348 c:/devkitPro2007/libnds/lib\libfat.a(fatfile.o)
 .debug_abbrev  0x00001cc5      0x1cc c:/devkitPro2007/libnds/lib\libfat.a(file_allocation_table.o)
 .debug_abbrev  0x00001e91       0xac c:/devkitPro2007/libnds/lib\libfat.a(filetime.o)
 .debug_abbrev  0x00001f3d      0x15b c:/devkitPro2007/libnds/lib\libfat.a(io_cf_common.o)
 .debug_abbrev  0x00002098       0x72 c:/devkitPro2007/libnds/lib\libfat.a(io_m3_common.o)
 .debug_abbrev  0x0000210a       0x7a c:/devkitPro2007/libnds/lib\libfat.a(io_sc_common.o)
 .debug_abbrev  0x00002184      0x323 c:/devkitPro2007/libnds/lib\libfat.a(directory.o)
 .debug_abbrev  0x000024a7      0x34c c:/devkitPro2007/libnds/lib\libnds9.a(console.o)
 .debug_abbrev  0x000027f3      0x173 c:/devkitPro2007/libnds/lib\libnds9.a(keys.o)
 .debug_abbrev  0x00002966       0xbf c:/devkitPro2007/libnds/lib\libnds9.a(video.o)
 .debug_abbrev  0x00002a25      0x213 c:/devkitPro2007/libnds/lib\libnds9.a(card.o)
 .debug_abbrev  0x00002c38      0x135 c:/devkitPro2007/libnds/lib\libnds9.a(interrupts.o)
 .debug_abbrev  0x00002d6d       0x10 c:/devkitpro2007/devkitarm/bin/../lib/gcc/arm-eabi/4.1.1/crtn.o

.debug_line     0x00000000     0x3890
 *(.debug_line)
 .debug_line    0x00000000       0x49 c:/devkitpro2007/devkitarm/bin/../lib/gcc/arm-eabi/4.1.1/crti.o
 .debug_line    0x00000049      0x261 c:/devkitPro2007/libnds/lib\libfat.a(libfat.o)
 .debug_line    0x000002aa      0x2e7 c:/devkitPro2007/libnds/lib\libfat.a(partition.o)
 .debug_line    0x00000591      0x154 c:/devkitPro2007/libnds/lib\libfat.a(disc.o)
 .debug_line    0x000006e5       0xc0 c:/devkitPro2007/libnds/lib\libfat.a(io_m3cf.o)
 .debug_line    0x000007a5      0x200 c:/devkitPro2007/libnds/lib\libfat.a(io_m3sd.o)
 .debug_line    0x000009a5       0xbf c:/devkitPro2007/libnds/lib\libfat.a(io_mpcf.o)
 .debug_line    0x00000a64      0x324 c:/devkitPro2007/libnds/lib\libfat.a(io_njsd.o)
 .debug_line    0x00000d88      0x2d8 c:/devkitPro2007/libnds/lib\libfat.a(io_nmmc.o)
 .debug_line    0x00001060       0xc0 c:/devkitPro2007/libnds/lib\libfat.a(io_sccf.o)
 .debug_line    0x00001120      0x1b7 c:/devkitPro2007/libnds/lib\libfat.a(io_scsd.o)
 .debug_line    0x000012d7      0x11f c:/devkitPro2007/libnds/lib\libfat.a(io_sd_common.o)
 .debug_line    0x000013f6       0x6e c:/devkitPro2007/libnds/lib\libfat.a(io_dldi.o)
 .debug_line    0x00001464       0x9b c:/devkitPro2007/libnds/lib\libfat.a(io_scsd_s.o)
 .debug_line    0x000014ff      0x22f c:/devkitPro2007/libnds/lib\libfat.a(cache.o)
 .debug_line    0x0000172e      0x40d c:/devkitPro2007/libnds/lib\libfat.a(fatdir.o)
 .debug_line    0x00001b3b      0x658 c:/devkitPro2007/libnds/lib\libfat.a(fatfile.o)
 .debug_line    0x00002193      0x1ee c:/devkitPro2007/libnds/lib\libfat.a(file_allocation_table.o)
 .debug_line    0x00002381      0x114 c:/devkitPro2007/libnds/lib\libfat.a(filetime.o)
 .debug_line    0x00002495      0x180 c:/devkitPro2007/libnds/lib\libfat.a(io_cf_common.o)
 .debug_line    0x00002615       0xb6 c:/devkitPro2007/libnds/lib\libfat.a(io_m3_common.o)
 .debug_line    0x000026cb       0xa7 c:/devkitPro2007/libnds/lib\libfat.a(io_sc_common.o)
 .debug_line    0x00002772      0x653 c:/devkitPro2007/libnds/lib\libfat.a(directory.o)
 .debug_line    0x00002dc5      0x3a2 c:/devkitPro2007/libnds/lib\libnds9.a(console.o)
 .debug_line    0x00003167      0x12b c:/devkitPro2007/libnds/lib\libnds9.a(keys.o)
 .debug_line    0x00003292      0x15e c:/devkitPro2007/libnds/lib\libnds9.a(video.o)
 .debug_line    0x000033f0      0x2fa c:/devkitPro2007/libnds/lib\libnds9.a(card.o)
 .debug_line    0x000036ea      0x15d c:/devkitPro2007/libnds/lib\libnds9.a(interrupts.o)
 .debug_line    0x00003847       0x49 c:/devkitpro2007/devkitarm/bin/../lib/gcc/arm-eabi/4.1.1/crtn.o

.debug_frame    0x00000000     0x1590
 *(.debug_frame)
 .debug_frame   0x00000000       0xbc c:/devkitPro2007/libnds/lib\libfat.a(libfat.o)
 .debug_frame   0x000000bc      0x10c c:/devkitPro2007/libnds/lib\libfat.a(partition.o)
 .debug_frame   0x000001c8       0x64 c:/devkitPro2007/libnds/lib\libfat.a(disc.o)
 .debug_frame   0x0000022c       0x28 c:/devkitPro2007/libnds/lib\libfat.a(io_m3cf.o)
 .debug_frame   0x00000254      0x1b0 c:/devkitPro2007/libnds/lib\libfat.a(io_m3sd.o)
 .debug_frame   0x00000404       0x28 c:/devkitPro2007/libnds/lib\libfat.a(io_mpcf.o)
 .debug_frame   0x0000042c      0x178 c:/devkitPro2007/libnds/lib\libfat.a(io_njsd.o)
 .debug_frame   0x000005a4      0x138 c:/devkitPro2007/libnds/lib\libfat.a(io_nmmc.o)
 .debug_frame   0x000006dc       0x28 c:/devkitPro2007/libnds/lib\libfat.a(io_sccf.o)
 .debug_frame   0x00000704      0x174 c:/devkitPro2007/libnds/lib\libfat.a(io_scsd.o)
 .debug_frame   0x00000878       0x88 c:/devkitPro2007/libnds/lib\libfat.a(io_sd_common.o)
 .debug_frame   0x00000900      0x110 c:/devkitPro2007/libnds/lib\libfat.a(cache.o)
 .debug_frame   0x00000a10      0x154 c:/devkitPro2007/libnds/lib\libfat.a(fatdir.o)
 .debug_frame   0x00000b64      0x104 c:/devkitPro2007/libnds/lib\libfat.a(fatfile.o)
 .debug_frame   0x00000c68       0xe8 c:/devkitPro2007/libnds/lib\libfat.a(file_allocation_table.o)
 .debug_frame   0x00000d50       0x5c c:/devkitPro2007/libnds/lib\libfat.a(filetime.o)
 .debug_frame   0x00000dac       0xbc c:/devkitPro2007/libnds/lib\libfat.a(io_cf_common.o)
 .debug_frame   0x00000e68       0x38 c:/devkitPro2007/libnds/lib\libfat.a(io_m3_common.o)
 .debug_frame   0x00000ea0       0x20 c:/devkitPro2007/libnds/lib\libfat.a(io_sc_common.o)
 .debug_frame   0x00000ec0      0x208 c:/devkitPro2007/libnds/lib\libfat.a(directory.o)
 .debug_frame   0x000010c8      0x108 c:/devkitPro2007/libnds/lib\libnds9.a(console.o)
 .debug_frame   0x000011d0       0x80 c:/devkitPro2007/libnds/lib\libnds9.a(keys.o)
 .debug_frame   0x00001250       0xdc c:/devkitPro2007/libnds/lib\libnds9.a(video.o)
 .debug_frame   0x0000132c      0x1b4 c:/devkitPro2007/libnds/lib\libnds9.a(card.o)
 .debug_frame   0x000014e0       0xb0 c:/devkitPro2007/libnds/lib\libnds9.a(interrupts.o)

.debug_str      0x00000000     0x30c7
 *(.debug_str)
 .debug_str     0x00000000      0x75b c:/devkitPro2007/libnds/lib\libfat.a(libfat.o)
                                0x859 (size before relaxing)
 .debug_str     0x0000075b      0x375 c:/devkitPro2007/libnds/lib\libfat.a(partition.o)
                                0x5e4 (size before relaxing)
 .debug_str     0x00000ad0      0x134 c:/devkitPro2007/libnds/lib\libfat.a(disc.o)
                                0x323 (size before relaxing)
 .debug_str     0x00000c04       0x95 c:/devkitPro2007/libnds/lib\libfat.a(io_m3cf.o)
                                0x290 (size before relaxing)
 .debug_str     0x00000c99      0x24d c:/devkitPro2007/libnds/lib\libfat.a(io_m3sd.o)
                                0x46d (size before relaxing)
 .debug_str     0x00000ee6       0x5b c:/devkitPro2007/libnds/lib\libfat.a(io_mpcf.o)
                                0x290 (size before relaxing)
 .debug_str     0x00000f41      0x200 c:/devkitPro2007/libnds/lib\libfat.a(io_njsd.o)
                                0x454 (size before relaxing)
 .debug_str     0x00001141      0x1b8 c:/devkitPro2007/libnds/lib\libfat.a(io_nmmc.o)
                                0x3d7 (size before relaxing)
 .debug_str     0x000012f9       0x5b c:/devkitPro2007/libnds/lib\libfat.a(io_sccf.o)
                                0x290 (size before relaxing)
 .debug_str     0x00001354      0x1b0 c:/devkitPro2007/libnds/lib\libfat.a(io_scsd.o)
                                0x414 (size before relaxing)
 .debug_str     0x00001504       0xcb c:/devkitPro2007/libnds/lib\libfat.a(io_sd_common.o)
                                0x203 (size before relaxing)
 .debug_str     0x000015cf      0x13a c:/devkitPro2007/libnds/lib\libfat.a(cache.o)
                                0x3d9 (size before relaxing)
 .debug_str     0x00001709      0x24a c:/devkitPro2007/libnds/lib\libfat.a(fatdir.o)
                                0xa3b (size before relaxing)
 .debug_str     0x00001953      0x19e c:/devkitPro2007/libnds/lib\libfat.a(fatfile.o)
                                0xaa7 (size before relaxing)
 .debug_str     0x00001af1      0x109 c:/devkitPro2007/libnds/lib\libfat.a(file_allocation_table.o)
                                0x4be (size before relaxing)
 .debug_str     0x00001bfa       0x9c c:/devkitPro2007/libnds/lib\libfat.a(filetime.o)
                                0x1a0 (size before relaxing)
 .debug_str     0x00001c96       0xb4 c:/devkitPro2007/libnds/lib\libfat.a(io_cf_common.o)
                                0x20a (size before relaxing)
 .debug_str     0x00001d4a       0x67 c:/devkitPro2007/libnds/lib\libfat.a(io_m3_common.o)
                                0x140 (size before relaxing)
 .debug_str     0x00001db1       0x5f c:/devkitPro2007/libnds/lib\libfat.a(io_sc_common.o)
                                0x138 (size before relaxing)
 .debug_str     0x00001e10      0x369 c:/devkitPro2007/libnds/lib\libfat.a(directory.o)
                                0x8a5 (size before relaxing)
 .debug_str     0x00002179      0x1f3 c:/devkitPro2007/libnds/lib\libnds9.a(console.o)
                                0x7f8 (size before relaxing)
 .debug_str     0x0000236c      0x1be c:/devkitPro2007/libnds/lib\libnds9.a(keys.o)
                                0x312 (size before relaxing)
 .debug_str     0x0000252a      0x932 c:/devkitPro2007/libnds/lib\libnds9.a(video.o)
                                0xa1e (size before relaxing)
 .debug_str     0x00002e5c      0x1ad c:/devkitPro2007/libnds/lib\libnds9.a(card.o)
                                0x30e (size before relaxing)
 .debug_str     0x00003009       0xbe c:/devkitPro2007/libnds/lib\libnds9.a(interrupts.o)
                                0x1b4 (size before relaxing)

.debug_loc      0x00000000     0x6fd1
 *(.debug_loc)
 .debug_loc     0x00000000      0x216 c:/devkitPro2007/libnds/lib\libfat.a(libfat.o)
 .debug_loc     0x00000216      0x42f c:/devkitPro2007/libnds/lib\libfat.a(partition.o)
 .debug_loc     0x00000645       0xca c:/devkitPro2007/libnds/lib\libfat.a(disc.o)
 .debug_loc     0x0000070f       0x2b c:/devkitPro2007/libnds/lib\libfat.a(io_m3cf.o)
 .debug_loc     0x0000073a      0x6cf c:/devkitPro2007/libnds/lib\libfat.a(io_m3sd.o)
 .debug_loc     0x00000e09       0x2b c:/devkitPro2007/libnds/lib\libfat.a(io_mpcf.o)
 .debug_loc     0x00000e34      0x866 c:/devkitPro2007/libnds/lib\libfat.a(io_njsd.o)
 .debug_loc     0x0000169a      0x4d6 c:/devkitPro2007/libnds/lib\libfat.a(io_nmmc.o)
 .debug_loc     0x00001b70       0x2b c:/devkitPro2007/libnds/lib\libfat.a(io_sccf.o)
 .debug_loc     0x00001b9b      0x619 c:/devkitPro2007/libnds/lib\libfat.a(io_scsd.o)
 .debug_loc     0x000021b4      0x2e8 c:/devkitPro2007/libnds/lib\libfat.a(io_sd_common.o)
 .debug_loc     0x0000249c      0x71c c:/devkitPro2007/libnds/lib\libfat.a(cache.o)
 .debug_loc     0x00002bb8      0x9a3 c:/devkitPro2007/libnds/lib\libfat.a(fatdir.o)
 .debug_loc     0x0000355b      0xe64 c:/devkitPro2007/libnds/lib\libfat.a(fatfile.o)
 .debug_loc     0x000043bf      0x630 c:/devkitPro2007/libnds/lib\libfat.a(file_allocation_table.o)
 .debug_loc     0x000049ef       0xac c:/devkitPro2007/libnds/lib\libfat.a(filetime.o)
 .debug_loc     0x00004a9b      0x421 c:/devkitPro2007/libnds/lib\libfat.a(io_cf_common.o)
 .debug_loc     0x00004ebc       0x50 c:/devkitPro2007/libnds/lib\libfat.a(io_m3_common.o)
 .debug_loc     0x00004f0c      0xf1c c:/devkitPro2007/libnds/lib\libfat.a(directory.o)
 .debug_loc     0x00005e28      0x762 c:/devkitPro2007/libnds/lib\libnds9.a(console.o)
 .debug_loc     0x0000658a       0x3e c:/devkitPro2007/libnds/lib\libnds9.a(keys.o)
 .debug_loc     0x000065c8      0x129 c:/devkitPro2007/libnds/lib\libnds9.a(video.o)
 .debug_loc     0x000066f1      0x7ab c:/devkitPro2007/libnds/lib\libnds9.a(card.o)
 .debug_loc     0x00006e9c      0x135 c:/devkitPro2007/libnds/lib\libnds9.a(interrupts.o)

.debug_macinfo
 *(.debug_macinfo)

.debug_weaknames
 *(.debug_weaknames)

.debug_funcnames
 *(.debug_funcnames)

.debug_typenames
 *(.debug_typenames)

.debug_varnames
 *(.debug_varnames)

.stack          0x00080000        0x0
                0x00080000                _stack = .
 *(.stack)
LOAD c:/devkitpro2007/devkitarm/bin/../lib/gcc/arm-eabi/4.1.1/../../../../arm-eabi/lib/ds_arm9_crt0.o
LOAD c:/devkitpro2007/devkitarm/bin/../lib/gcc/arm-eabi/4.1.1/crti.o
LOAD c:/devkitpro2007/devkitarm/bin/../lib/gcc/arm-eabi/4.1.1/crtbegin.o
LOAD ./SNES_global.o
LOAD ./apu.o
LOAD ./conf.o
LOAD ./core.o
LOAD ./crc32.o
LOAD ./engine.o
LOAD ./fs.o
LOAD ./snemul_gui.o
LOAD ./intr.o
LOAD ./main.o
LOAD ./memmap.o
LOAD ./opcodes.o
LOAD ./opcodes2.o
LOAD ./ppu.o
LOAD ./snapshot.o
LOAD ./snes.o
LOAD ./touch.o
LOAD ./gui.o
LOAD ./gui_font.o
LOAD ./gui_widgets.o
LOAD ./katakana_12.o
LOAD ./smallfont_7.o
LOAD ./trebuchet_9.o
LOAD ./input.o
LOAD ./ram.o
LOAD ./snemul_str_cat.o
LOAD ./snemul_str_dan.o
LOAD ./snemul_str_eng.o
LOAD ./snemul_str_fr.o
LOAD ./snemul_str_ger.o
LOAD ./snemul_str_ita.o
LOAD ./snemul_str_jpn.o
LOAD ./snemul_str_nl.o
LOAD ./snemul_str_pol.o
LOAD ./snemul_str_pt.o
LOAD ./snemul_str_spa.o
LOAD c:/devkitPro2007/libnds/lib\libfat.a
LOAD c:/devkitPro2007/libnds/lib\libnds9.a
START GROUP
LOAD c:/devkitpro2007/devkitarm/bin/../lib/gcc/arm-eabi/4.1.1\libgcc.a
LOAD c:/devkitpro2007/devkitarm/bin/../lib/gcc/arm-eabi/4.1.1/../../../../arm-eabi/lib\libc.a
END GROUP
START GROUP
LOAD c:/devkitpro2007/devkitarm/bin/../lib/gcc/arm-eabi/4.1.1/../../../../arm-eabi/lib\libsysbase.a
LOAD c:/devkitpro2007/devkitarm/bin/../lib/gcc/arm-eabi/4.1.1/../../../../arm-eabi/lib\libc.a
END GROUP
LOAD c:/devkitpro2007/devkitarm/bin/../lib/gcc/arm-eabi/4.1.1/crtend.o
LOAD c:/devkitpro2007/devkitarm/bin/../lib/gcc/arm-eabi/4.1.1/crtn.o
OUTPUT(arm9.elf elf32-littlearm)

.ARM.attributes
                0x00000000       0x10
 .ARM.attributes
                0x00000000       0x1e c:/devkitpro2007/devkitarm/bin/../lib/gcc/arm-eabi/4.1.1/../../../../arm-eabi/lib/ds_arm9_crt0.o
 .ARM.attributes
                0x0000001e       0x1e c:/devkitpro2007/devkitarm/bin/../lib/gcc/arm-eabi/4.1.1/crti.o
 .ARM.attributes
                0x0000003c       0x1e c:/devkitpro2007/devkitarm/bin/../lib/gcc/arm-eabi/4.1.1/crtbegin.o
 .ARM.attributes
                0x0000005a       0x1d ./SNES_global.o
 .ARM.attributes
                0x00000077       0x1f ./apu.o
 .ARM.attributes
                0x00000096       0x1f ./conf.o
 .ARM.attributes
                0x000000b5       0x1f ./core.o
 .ARM.attributes
                0x000000d4       0x1f ./crc32.o
 .ARM.attributes
                0x000000f3       0x1f ./engine.o
 .ARM.attributes
                0x00000112       0x1f ./fs.o
 .ARM.attributes
                0x00000131       0x1f ./snemul_gui.o
 .ARM.attributes
                0x00000150       0x14 ./intr.o
 .ARM.attributes
                0x00000164       0x1f ./main.o
 .ARM.attributes
                0x00000183       0x1f ./memmap.o
 .ARM.attributes
                0x000001a2       0x1f ./opcodes.o
 .ARM.attributes
                0x000001c1       0x14 ./opcodes2.o
 .ARM.attributes
                0x000001d5       0x1f ./ppu.o
 .ARM.attributes
                0x000001f4       0x1f ./snapshot.o
 .ARM.attributes
                0x00000213       0x1f ./snes.o
 .ARM.attributes
                0x00000232       0x1f ./touch.o
 .ARM.attributes
                0x00000251       0x1f ./gui.o
 .ARM.attributes
                0x00000270       0x1f ./gui_font.o
 .ARM.attributes
                0x0000028f       0x1f ./gui_widgets.o
 .ARM.attributes
                0x000002ae       0x1d ./katakana_12.o
 .ARM.attributes
                0x000002cb       0x1d ./smallfont_7.o
 .ARM.attributes
                0x000002e8       0x1d ./trebuchet_9.o
 .ARM.attributes
                0x00000305       0x1f ./input.o
 .ARM.attributes
                0x00000324       0x1f ./ram.o
 .ARM.attributes
                0x00000343       0x1d ./snemul_str_cat.o
 .ARM.attributes
                0x00000360       0x1d ./snemul_str_dan.o
 .ARM.attributes
                0x0000037d       0x1d ./snemul_str_eng.o
 .ARM.attributes
                0x0000039a       0x1d ./snemul_str_fr.o
 .ARM.attributes
                0x000003b7       0x1d ./snemul_str_ger.o
 .ARM.attributes
                0x000003d4       0x1d ./snemul_str_ita.o
 .ARM.attributes
                0x000003f1       0x1d ./snemul_str_jpn.o
 .ARM.attributes
                0x0000040e       0x1d ./snemul_str_nl.o
 .ARM.attributes
                0x0000042b       0x1d ./snemul_str_pol.o
 .ARM.attributes
                0x00000448       0x1d ./snemul_str_pt.o
 .ARM.attributes
                0x00000465       0x1d ./snemul_str_spa.o
 .ARM.attributes
                0x00000482       0x19 c:/devkitPro2007/libnds/lib\libfat.a(libfat.o)
 .ARM.attributes
                0x0000049b       0x19 c:/devkitPro2007/libnds/lib\libfat.a(partition.o)
 .ARM.attributes
                0x000004b4       0x19 c:/devkitPro2007/libnds/lib\libfat.a(disc.o)
 .ARM.attributes
                0x000004cd       0x19 c:/devkitPro2007/libnds/lib\libfat.a(io_m3cf.o)
 .ARM.attributes
                0x000004e6       0x19 c:/devkitPro2007/libnds/lib\libfat.a(io_m3sd.o)
 .ARM.attributes
                0x000004ff       0x19 c:/devkitPro2007/libnds/lib\libfat.a(io_mpcf.o)
 .ARM.attributes
                0x00000518       0x19 c:/devkitPro2007/libnds/lib\libfat.a(io_njsd.o)
 .ARM.attributes
                0x00000531       0x19 c:/devkitPro2007/libnds/lib\libfat.a(io_nmmc.o)
 .ARM.attributes
                0x0000054a       0x19 c:/devkitPro2007/libnds/lib\libfat.a(io_sccf.o)
 .ARM.attributes
                0x00000563       0x19 c:/devkitPro2007/libnds/lib\libfat.a(io_scsd.o)
 .ARM.attributes
                0x0000057c       0x19 c:/devkitPro2007/libnds/lib\libfat.a(io_sd_common.o)
 .ARM.attributes
                0x00000595       0x1e c:/devkitPro2007/libnds/lib\libfat.a(io_dldi.o)
 .ARM.attributes
                0x000005b3       0x1e c:/devkitPro2007/libnds/lib\libfat.a(io_scsd_s.o)
 .ARM.attributes
                0x000005d1       0x19 c:/devkitPro2007/libnds/lib\libfat.a(cache.o)
 .ARM.attributes
                0x000005ea       0x19 c:/devkitPro2007/libnds/lib\libfat.a(fatdir.o)
 .ARM.attributes
                0x00000603       0x19 c:/devkitPro2007/libnds/lib\libfat.a(fatfile.o)
 .ARM.attributes
                0x0000061c       0x19 c:/devkitPro2007/libnds/lib\libfat.a(file_allocation_table.o)
 .ARM.attributes
                0x00000635       0x19 c:/devkitPro2007/libnds/lib\libfat.a(filetime.o)
 .ARM.attributes
                0x0000064e       0x19 c:/devkitPro2007/libnds/lib\libfat.a(io_cf_common.o)
 .ARM.attributes
                0x00000667       0x19 c:/devkitPro2007/libnds/lib\libfat.a(io_m3_common.o)
 .ARM.attributes
                0x00000680       0x19 c:/devkitPro2007/libnds/lib\libfat.a(io_sc_common.o)
 .ARM.attributes
                0x00000699       0x19 c:/devkitPro2007/libnds/lib\libfat.a(directory.o)
 .ARM.attributes
                0x000006b2       0x19 c:/devkitPro2007/libnds/lib\libnds9.a(console.o)
 .ARM.attributes
                0x000006cb       0x19 c:/devkitPro2007/libnds/lib\libnds9.a(keys.o)
 .ARM.attributes
                0x000006e4       0x19 c:/devkitPro2007/libnds/lib\libnds9.a(video.o)
 .ARM.attributes
                0x000006fd       0x19 c:/devkitPro2007/libnds/lib\libnds9.a(card.o)
 .ARM.attributes
                0x00000716       0x19 c:/devkitPro2007/libnds/lib\libnds9.a(interrupts.o)
 .ARM.attributes
                0x0000072f       0x19 c:/devkitPro2007/libnds/lib\libnds9.a(exceptionHandler.o)
 .ARM.attributes
                0x00000748       0x19 c:/devkitPro2007/libnds/lib\libnds9.a(biosCalls.o)
 .ARM.attributes
                0x00000761       0x19 c:/devkitPro2007/libnds/lib\libnds9.a(interruptDispatcher.o)
 .ARM.attributes
                0x0000077a       0x10 c:/devkitPro2007/libnds/lib\libnds9.a(default_font.o)
 .ARM.attributes
                0x0000078a       0x1e c:/devkitpro2007/devkitarm/bin/../lib/gcc/arm-eabi/4.1.1\libgcc.a(_udivsi3.o)
 .ARM.attributes
                0x000007a8       0x1e c:/devkitpro2007/devkitarm/bin/../lib/gcc/arm-eabi/4.1.1\libgcc.a(_divsi3.o)
 .ARM.attributes
                0x000007c6       0x1e c:/devkitpro2007/devkitarm/bin/../lib/gcc/arm-eabi/4.1.1\libgcc.a(_dvmd_tls.o)
 .ARM.attributes
                0x000007e4       0x1e c:/devkitpro2007/devkitarm/bin/../lib/gcc/arm-eabi/4.1.1\libgcc.a(_call_via_rX.o)
 .ARM.attributes
                0x00000802       0x1e c:/devkitpro2007/devkitarm/bin/../lib/gcc/arm-eabi/4.1.1\libgcc.a(_addsubdf3.o)
 .ARM.attributes
                0x00000820       0x1e c:/devkitpro2007/devkitarm/bin/../lib/gcc/arm-eabi/4.1.1\libgcc.a(_truncdfsf2.o)
 .ARM.attributes
                0x0000083e       0x1e c:/devkitpro2007/devkitarm/bin/../lib/gcc/arm-eabi/4.1.1/../../../../arm-eabi/lib\libc.a(lib_a-atof.o)
 .ARM.attributes
                0x0000085c       0x1c c:/devkitpro2007/devkitarm/bin/../lib/gcc/arm-eabi/4.1.1/../../../../arm-eabi/lib\libc.a(lib_a-ctype_.o)
 .ARM.attributes
                0x00000878       0x1e c:/devkitpro2007/devkitarm/bin/../lib/gcc/arm-eabi/4.1.1/../../../../arm-eabi/lib\libc.a(lib_a-fclose.o)
 .ARM.attributes
                0x00000896       0x1e c:/devkitpro2007/devkitarm/bin/../lib/gcc/arm-eabi/4.1.1/../../../../arm-eabi/lib\libc.a(lib_a-fflush.o)
 .ARM.attributes
                0x000008b4       0x1e c:/devkitpro2007/devkitarm/bin/../lib/gcc/arm-eabi/4.1.1/../../../../arm-eabi/lib\libc.a(lib_a-findfp.o)
 .ARM.attributes
                0x000008d2       0x1e c:/devkitpro2007/devkitarm/bin/../lib/gcc/arm-eabi/4.1.1/../../../../arm-eabi/lib\libc.a(lib_a-fopen.o)
 .ARM.attributes
                0x000008f0       0x1e c:/devkitpro2007/devkitarm/bin/../lib/gcc/arm-eabi/4.1.1/../../../../arm-eabi/lib\libc.a(lib_a-fputc.o)
 .ARM.attributes
                0x0000090e       0x1e c:/devkitpro2007/devkitarm/bin/../lib/gcc/arm-eabi/4.1.1/../../../../arm-eabi/lib\libc.a(lib_a-fputs.o)
 .ARM.attributes
                0x0000092c       0x1e c:/devkitpro2007/devkitarm/bin/../lib/gcc/arm-eabi/4.1.1/../../../../arm-eabi/lib\libc.a(lib_a-fread.o)
 .ARM.attributes
                0x0000094a       0x1e c:/devkitpro2007/devkitarm/bin/../lib/gcc/arm-eabi/4.1.1/../../../../arm-eabi/lib\libc.a(lib_a-freer.o)
 .ARM.attributes
                0x00000968       0x1e c:/devkitpro2007/devkitarm/bin/../lib/gcc/arm-eabi/4.1.1/../../../../arm-eabi/lib\libc.a(lib_a-fseek.o)
 .ARM.attributes
                0x00000986       0x1e c:/devkitpro2007/devkitarm/bin/../lib/gcc/arm-eabi/4.1.1/../../../../arm-eabi/lib\libc.a(lib_a-fstatr.o)
 .ARM.attributes
                0x000009a4       0x1e c:/devkitpro2007/devkitarm/bin/../lib/gcc/arm-eabi/4.1.1/../../../../arm-eabi/lib\libc.a(lib_a-ftell.o)
 .ARM.attributes
                0x000009c2       0x1e c:/devkitpro2007/devkitarm/bin/../lib/gcc/arm-eabi/4.1.1/../../../../arm-eabi/lib\libc.a(lib_a-fvwrite.o)
 .ARM.attributes
                0x000009e0       0x1e c:/devkitpro2007/devkitarm/bin/../lib/gcc/arm-eabi/4.1.1/../../../../arm-eabi/lib\libc.a(lib_a-fwalk.o)
 .ARM.attributes
                0x000009fe       0x1e c:/devkitpro2007/devkitarm/bin/../lib/gcc/arm-eabi/4.1.1/../../../../arm-eabi/lib\libc.a(lib_a-fwrite.o)
 .ARM.attributes
                0x00000a1c       0x1c c:/devkitpro2007/devkitarm/bin/../lib/gcc/arm-eabi/4.1.1/../../../../arm-eabi/lib\libc.a(lib_a-impure.o)
 .ARM.attributes
                0x00000a38       0x1e c:/devkitpro2007/devkitarm/bin/../lib/gcc/arm-eabi/4.1.1/../../../../arm-eabi/lib\libc.a(lib_a-init.o)
 .ARM.attributes
                0x00000a56       0x1e c:/devkitpro2007/devkitarm/bin/../lib/gcc/arm-eabi/4.1.1/../../../../arm-eabi/lib\libc.a(lib_a-iprintf.o)
 .ARM.attributes
                0x00000a74       0x1e c:/devkitpro2007/devkitarm/bin/../lib/gcc/arm-eabi/4.1.1/../../../../arm-eabi/lib\libc.a(lib_a-makebuf.o)
 .ARM.attributes
                0x00000a92       0x1e c:/devkitpro2007/devkitarm/bin/../lib/gcc/arm-eabi/4.1.1/../../../../arm-eabi/lib\libc.a(lib_a-malloc.o)
 .ARM.attributes
                0x00000ab0       0x1e c:/devkitpro2007/devkitarm/bin/../lib/gcc/arm-eabi/4.1.1/../../../../arm-eabi/lib\libc.a(lib_a-mallocr.o)
 .ARM.attributes
                0x00000ace       0x1e c:/devkitpro2007/devkitarm/bin/../lib/gcc/arm-eabi/4.1.1/../../../../arm-eabi/lib\libc.a(lib_a-memchr.o)
 .ARM.attributes
                0x00000aec       0x1e c:/devkitpro2007/devkitarm/bin/../lib/gcc/arm-eabi/4.1.1/../../../../arm-eabi/lib\libc.a(lib_a-memcpy.o)
 .ARM.attributes
                0x00000b0a       0x1e c:/devkitpro2007/devkitarm/bin/../lib/gcc/arm-eabi/4.1.1/../../../../arm-eabi/lib\libc.a(lib_a-memmove.o)
 .ARM.attributes
                0x00000b28       0x1e c:/devkitpro2007/devkitarm/bin/../lib/gcc/arm-eabi/4.1.1/../../../../arm-eabi/lib\libc.a(lib_a-memset.o)
 .ARM.attributes
                0x00000b46       0x1e c:/devkitpro2007/devkitarm/bin/../lib/gcc/arm-eabi/4.1.1/../../../../arm-eabi/lib\libc.a(lib_a-mlock.o)
 .ARM.attributes
                0x00000b64       0x1e c:/devkitpro2007/devkitarm/bin/../lib/gcc/arm-eabi/4.1.1/../../../../arm-eabi/lib\libc.a(lib_a-openr.o)
 .ARM.attributes
                0x00000b82       0x1e c:/devkitpro2007/devkitarm/bin/../lib/gcc/arm-eabi/4.1.1/../../../../arm-eabi/lib\libc.a(lib_a-putc.o)
 .ARM.attributes
                0x00000ba0       0x1e c:/devkitpro2007/devkitarm/bin/../lib/gcc/arm-eabi/4.1.1/../../../../arm-eabi/lib\libc.a(lib_a-qsort.o)
 .ARM.attributes
                0x00000bbe       0x1e c:/devkitpro2007/devkitarm/bin/../lib/gcc/arm-eabi/4.1.1/../../../../arm-eabi/lib\libc.a(lib_a-reallocr.o)
 .ARM.attributes
                0x00000bdc       0x1e c:/devkitpro2007/devkitarm/bin/../lib/gcc/arm-eabi/4.1.1/../../../../arm-eabi/lib\libc.a(lib_a-reent.o)
 .ARM.attributes
                0x00000bfa       0x1e c:/devkitpro2007/devkitarm/bin/../lib/gcc/arm-eabi/4.1.1/../../../../arm-eabi/lib\libc.a(lib_a-refill.o)
 .ARM.attributes
                0x00000c18       0x1e c:/devkitpro2007/devkitarm/bin/../lib/gcc/arm-eabi/4.1.1/../../../../arm-eabi/lib\libc.a(lib_a-sbrkr.o)
 .ARM.attributes
                0x00000c36       0x1e c:/devkitpro2007/devkitarm/bin/../lib/gcc/arm-eabi/4.1.1/../../../../arm-eabi/lib\libc.a(lib_a-setvbuf.o)
 .ARM.attributes
                0x00000c54       0x1e c:/devkitpro2007/devkitarm/bin/../lib/gcc/arm-eabi/4.1.1/../../../../arm-eabi/lib\libc.a(lib_a-siscanf.o)
 .ARM.attributes
                0x00000c72       0x1e c:/devkitpro2007/devkitarm/bin/../lib/gcc/arm-eabi/4.1.1/../../../../arm-eabi/lib\libc.a(lib_a-snprintf.o)
 .ARM.attributes
                0x00000c90       0x1e c:/devkitpro2007/devkitarm/bin/../lib/gcc/arm-eabi/4.1.1/../../../../arm-eabi/lib\libc.a(lib_a-sprintf.o)
 .ARM.attributes
                0x00000cae       0x1e c:/devkitpro2007/devkitarm/bin/../lib/gcc/arm-eabi/4.1.1/../../../../arm-eabi/lib\libc.a(lib_a-stdio.o)
 .ARM.attributes
                0x00000ccc       0x1e c:/devkitpro2007/devkitarm/bin/../lib/gcc/arm-eabi/4.1.1/../../../../arm-eabi/lib\libc.a(lib_a-strcasecmp.o)
 .ARM.attributes
                0x00000cea       0x1e c:/devkitpro2007/devkitarm/bin/../lib/gcc/arm-eabi/4.1.1/../../../../arm-eabi/lib\libc.a(lib_a-strcat.o)
 .ARM.attributes
                0x00000d08       0x1e c:/devkitpro2007/devkitarm/bin/../lib/gcc/arm-eabi/4.1.1/../../../../arm-eabi/lib\libc.a(lib_a-strchr.o)
 .ARM.attributes
                0x00000d26       0x1e c:/devkitpro2007/devkitarm/bin/../lib/gcc/arm-eabi/4.1.1/../../../../arm-eabi/lib\libc.a(lib_a-strcmp.o)
 .ARM.attributes
                0x00000d44       0x1e c:/devkitpro2007/devkitarm/bin/../lib/gcc/arm-eabi/4.1.1/../../../../arm-eabi/lib\libc.a(lib_a-strcpy.o)
 .ARM.attributes
                0x00000d62       0x1e c:/devkitpro2007/devkitarm/bin/../lib/gcc/arm-eabi/4.1.1/../../../../arm-eabi/lib\libc.a(lib_a-strlen.o)
 .ARM.attributes
                0x00000d80       0x1e c:/devkitpro2007/devkitarm/bin/../lib/gcc/arm-eabi/4.1.1/../../../../arm-eabi/lib\libc.a(lib_a-strncasecmp.o)
 .ARM.attributes
                0x00000d9e       0x1e c:/devkitpro2007/devkitarm/bin/../lib/gcc/arm-eabi/4.1.1/../../../../arm-eabi/lib\libc.a(lib_a-strncmp.o)
 .ARM.attributes
                0x00000dbc       0x1e c:/devkitpro2007/devkitarm/bin/../lib/gcc/arm-eabi/4.1.1/../../../../arm-eabi/lib\libc.a(lib_a-strncpy.o)
 .ARM.attributes
                0x00000dda       0x1e c:/devkitpro2007/devkitarm/bin/../lib/gcc/arm-eabi/4.1.1/../../../../arm-eabi/lib\libc.a(lib_a-strnlen.o)
 .ARM.attributes
                0x00000df8       0x1e c:/devkitpro2007/devkitarm/bin/../lib/gcc/arm-eabi/4.1.1/../../../../arm-eabi/lib\libc.a(lib_a-strpbrk.o)
 .ARM.attributes
                0x00000e16       0x1e c:/devkitpro2007/devkitarm/bin/../lib/gcc/arm-eabi/4.1.1/../../../../arm-eabi/lib\libc.a(lib_a-strrchr.o)
 .ARM.attributes
                0x00000e34       0x1e c:/devkitpro2007/devkitarm/bin/../lib/gcc/arm-eabi/4.1.1/../../../../arm-eabi/lib\libc.a(lib_a-strstr.o)
 .ARM.attributes
                0x00000e52       0x1e c:/devkitpro2007/devkitarm/bin/../lib/gcc/arm-eabi/4.1.1/../../../../arm-eabi/lib\libc.a(lib_a-strtod.o)
 .ARM.attributes
                0x00000e70       0x1e c:/devkitpro2007/devkitarm/bin/../lib/gcc/arm-eabi/4.1.1/../../../../arm-eabi/lib\libc.a(lib_a-strtol.o)
 .ARM.attributes
                0x00000e8e       0x1e c:/devkitpro2007/devkitarm/bin/../lib/gcc/arm-eabi/4.1.1/../../../../arm-eabi/lib\libc.a(lib_a-strtoul.o)
 .ARM.attributes
                0x00000eac       0x1e c:/devkitpro2007/devkitarm/bin/../lib/gcc/arm-eabi/4.1.1/../../../../arm-eabi/lib\libc.a(lib_a-strupr.o)
 .ARM.attributes
                0x00000eca       0x1e c:/devkitpro2007/devkitarm/bin/../lib/gcc/arm-eabi/4.1.1/../../../../arm-eabi/lib\libc.a(lib_a-sysclose.o)
 .ARM.attributes
                0x00000ee8       0x1e c:/devkitpro2007/devkitarm/bin/../lib/gcc/arm-eabi/4.1.1/../../../../arm-eabi/lib\libc.a(lib_a-syslseek.o)
 .ARM.attributes
                0x00000f06       0x1e c:/devkitpro2007/devkitarm/bin/../lib/gcc/arm-eabi/4.1.1/../../../../arm-eabi/lib\libc.a(lib_a-sysopen.o)
 .ARM.attributes
                0x00000f24       0x1e c:/devkitpro2007/devkitarm/bin/../lib/gcc/arm-eabi/4.1.1/../../../../arm-eabi/lib\libc.a(lib_a-sysread.o)
 .ARM.attributes
                0x00000f42       0x1e c:/devkitpro2007/devkitarm/bin/../lib/gcc/arm-eabi/4.1.1/../../../../arm-eabi/lib\libc.a(lib_a-toupper.o)
 .ARM.attributes
                0x00000f60       0x1e c:/devkitpro2007/devkitarm/bin/../lib/gcc/arm-eabi/4.1.1/../../../../arm-eabi/lib\libc.a(lib_a-vfiprintf.o)
 .ARM.attributes
                0x00000f7e       0x1e c:/devkitpro2007/devkitarm/bin/../lib/gcc/arm-eabi/4.1.1/../../../../arm-eabi/lib\libc.a(lib_a-vfiscanf.o)
 .ARM.attributes
                0x00000f9c       0x1e c:/devkitpro2007/devkitarm/bin/../lib/gcc/arm-eabi/4.1.1/../../../../arm-eabi/lib\libc.a(lib_a-vfprintf.o)
 .ARM.attributes
                0x00000fba       0x1e c:/devkitpro2007/devkitarm/bin/../lib/gcc/arm-eabi/4.1.1/../../../../arm-eabi/lib\libc.a(lib_a-vsnprintf.o)
 .ARM.attributes
                0x00000fd8       0x1e c:/devkitpro2007/devkitarm/bin/../lib/gcc/arm-eabi/4.1.1/../../../../arm-eabi/lib\libc.a(lib_a-wbuf.o)
 .ARM.attributes
                0x00000ff6       0x1e c:/devkitpro2007/devkitarm/bin/../lib/gcc/arm-eabi/4.1.1/../../../../arm-eabi/lib\libc.a(lib_a-wcrtomb.o)
 .ARM.attributes
                0x00001014       0x1e c:/devkitpro2007/devkitarm/bin/../lib/gcc/arm-eabi/4.1.1/../../../../arm-eabi/lib\libc.a(lib_a-wcsrtombs.o)
 .ARM.attributes
                0x00001032       0x1e c:/devkitpro2007/devkitarm/bin/../lib/gcc/arm-eabi/4.1.1/../../../../arm-eabi/lib\libc.a(lib_a-wctomb_r.o)
 .ARM.attributes
                0x00001050       0x1e c:/devkitpro2007/devkitarm/bin/../lib/gcc/arm-eabi/4.1.1/../../../../arm-eabi/lib\libc.a(lib_a-writer.o)
 .ARM.attributes
                0x0000106e       0x1e c:/devkitpro2007/devkitarm/bin/../lib/gcc/arm-eabi/4.1.1/../../../../arm-eabi/lib\libc.a(lib_a-wsetup.o)
 .ARM.attributes
                0x0000108c       0x1e c:/devkitpro2007/devkitarm/bin/../lib/gcc/arm-eabi/4.1.1/../../../../arm-eabi/lib\libc.a(lib_a-closer.o)
 .ARM.attributes
                0x000010aa       0x1e c:/devkitpro2007/devkitarm/bin/../lib/gcc/arm-eabi/4.1.1/../../../../arm-eabi/lib\libc.a(lib_a-dtoa.o)
 .ARM.attributes
                0x000010c8       0x1e c:/devkitpro2007/devkitarm/bin/../lib/gcc/arm-eabi/4.1.1/../../../../arm-eabi/lib\libc.a(lib_a-flags.o)
 .ARM.attributes
                0x000010e6       0x1e c:/devkitpro2007/devkitarm/bin/../lib/gcc/arm-eabi/4.1.1/../../../../arm-eabi/lib\libc.a(lib_a-gdtoa-gethex.o)
 .ARM.attributes
                0x00001104       0x1e c:/devkitpro2007/devkitarm/bin/../lib/gcc/arm-eabi/4.1.1/../../../../arm-eabi/lib\libc.a(lib_a-gdtoa-hexnan.o)
 .ARM.attributes
                0x00001122       0x1e c:/devkitpro2007/devkitarm/bin/../lib/gcc/arm-eabi/4.1.1/../../../../arm-eabi/lib\libc.a(lib_a-iswspace.o)
 .ARM.attributes
                0x00001140       0x1e c:/devkitpro2007/devkitarm/bin/../lib/gcc/arm-eabi/4.1.1/../../../../arm-eabi/lib\libc.a(lib_a-locale.o)
 .ARM.attributes
                0x0000115e       0x1e c:/devkitpro2007/devkitarm/bin/../lib/gcc/arm-eabi/4.1.1/../../../../arm-eabi/lib\libc.a(lib_a-lseekr.o)
 .ARM.attributes
                0x0000117c       0x1e c:/devkitpro2007/devkitarm/bin/../lib/gcc/arm-eabi/4.1.1/../../../../arm-eabi/lib\libc.a(lib_a-mbrtowc.o)
 .ARM.attributes
                0x0000119a       0x1e c:/devkitpro2007/devkitarm/bin/../lib/gcc/arm-eabi/4.1.1/../../../../arm-eabi/lib\libc.a(lib_a-mbtowc_r.o)
 .ARM.attributes
                0x000011b8       0x1e c:/devkitpro2007/devkitarm/bin/../lib/gcc/arm-eabi/4.1.1/../../../../arm-eabi/lib\libc.a(lib_a-mprec.o)
 .ARM.attributes
                0x000011d6       0x1e c:/devkitpro2007/devkitarm/bin/../lib/gcc/arm-eabi/4.1.1/../../../../arm-eabi/lib\libc.a(lib_a-readr.o)
 .ARM.attributes
                0x000011f4       0x1e c:/devkitpro2007/devkitarm/bin/../lib/gcc/arm-eabi/4.1.1/../../../../arm-eabi/lib\libc.a(lib_a-s_isinfd.o)
 .ARM.attributes
                0x00001212       0x1e c:/devkitpro2007/devkitarm/bin/../lib/gcc/arm-eabi/4.1.1/../../../../arm-eabi/lib\libc.a(lib_a-s_isnand.o)
 .ARM.attributes
                0x00001230       0x1e c:/devkitpro2007/devkitarm/bin/../lib/gcc/arm-eabi/4.1.1/../../../../arm-eabi/lib\libc.a(lib_a-sccl.o)
 .ARM.attributes
                0x0000124e       0x1e c:/devkitpro2007/devkitarm/bin/../lib/gcc/arm-eabi/4.1.1/../../../../arm-eabi/lib\libc.a(lib_a-sf_nan.o)
 .ARM.attributes
                0x0000126c       0x1e c:/devkitpro2007/devkitarm/bin/../lib/gcc/arm-eabi/4.1.1/../../../../arm-eabi/lib\libc.a(lib_a-ungetc.o)
 .ARM.attributes
                0x0000128a       0x1e c:/devkitpro2007/devkitarm/bin/../lib/gcc/arm-eabi/4.1.1/../../../../arm-eabi/lib\libc.a(lib_a-callocr.o)
 .ARM.attributes
                0x000012a8       0x1e c:/devkitpro2007/devkitarm/bin/../lib/gcc/arm-eabi/4.1.1\libgcc.a(_muldivdf3.o)
 .ARM.attributes
                0x000012c6       0x1e c:/devkitpro2007/devkitarm/bin/../lib/gcc/arm-eabi/4.1.1\libgcc.a(_cmpdf2.o)
 .ARM.attributes
                0x000012e4       0x1e c:/devkitpro2007/devkitarm/bin/../lib/gcc/arm-eabi/4.1.1\libgcc.a(_fixdfsi.o)
 .ARM.attributes
                0x00001302       0x1e c:/devkitpro2007/devkitarm/bin/../lib/gcc/arm-eabi/4.1.1\libgcc.a(_fixunsdfsi.o)
 .ARM.attributes
                0x00001320       0x1e c:/devkitpro2007/devkitarm/bin/../lib/gcc/arm-eabi/4.1.1/../../../../arm-eabi/lib\libsysbase.a(iosupport.o)
 .ARM.attributes
                0x0000133e       0x1e c:/devkitpro2007/devkitarm/bin/../lib/gcc/arm-eabi/4.1.1/../../../../arm-eabi/lib\libsysbase.a(close.o)
 .ARM.attributes
                0x0000135c       0x1e c:/devkitpro2007/devkitarm/bin/../lib/gcc/arm-eabi/4.1.1/../../../../arm-eabi/lib\libsysbase.a(fstat.o)
 .ARM.attributes
                0x0000137a       0x1e c:/devkitpro2007/devkitarm/bin/../lib/gcc/arm-eabi/4.1.1/../../../../arm-eabi/lib\libsysbase.a(isatty.o)
 .ARM.attributes
                0x00001398       0x1e c:/devkitpro2007/devkitarm/bin/../lib/gcc/arm-eabi/4.1.1/../../../../arm-eabi/lib\libsysbase.a(lseek.o)
 .ARM.attributes
                0x000013b6       0x1e c:/devkitpro2007/devkitarm/bin/../lib/gcc/arm-eabi/4.1.1/../../../../arm-eabi/lib\libsysbase.a(open.o)
 .ARM.attributes
                0x000013d4       0x1e c:/devkitpro2007/devkitarm/bin/../lib/gcc/arm-eabi/4.1.1/../../../../arm-eabi/lib\libsysbase.a(read.o)
 .ARM.attributes
                0x000013f2       0x1e c:/devkitpro2007/devkitarm/bin/../lib/gcc/arm-eabi/4.1.1/../../../../arm-eabi/lib\libsysbase.a(sbrk.o)
 .ARM.attributes
                0x00001410       0x1e c:/devkitpro2007/devkitarm/bin/../lib/gcc/arm-eabi/4.1.1/../../../../arm-eabi/lib\libsysbase.a(write.o)
 .ARM.attributes
                0x0000142e       0x1c c:/devkitpro2007/devkitarm/bin/../lib/gcc/arm-eabi/4.1.1/../../../../arm-eabi/lib\libsysbase.a(malloc_vars.o)
 .ARM.attributes
                0x0000144a       0x1e c:/devkitpro2007/devkitarm/bin/../lib/gcc/arm-eabi/4.1.1/../../../../arm-eabi/lib\libsysbase.a(chdir.o)
 .ARM.attributes
                0x00001468       0x1e c:/devkitpro2007/devkitarm/bin/../lib/gcc/arm-eabi/4.1.1/../../../../arm-eabi/lib\libsysbase.a(dir.o)
 .ARM.attributes
                0x00001486       0x1c c:/devkitpro2007/devkitarm/bin/../lib/gcc/arm-eabi/4.1.1/crtend.o
 .ARM.attributes
                0x000014a2       0x1e c:/devkitpro2007/devkitarm/bin/../lib/gcc/arm-eabi/4.1.1/crtn.o

.debug_ranges   0x00000000      0xb18
 .debug_ranges  0x00000000       0x30 c:/devkitPro2007/libnds/lib\libfat.a(partition.o)
 .debug_ranges  0x00000030       0x30 c:/devkitPro2007/libnds/lib\libfat.a(io_m3sd.o)
 .debug_ranges  0x00000060      0x258 c:/devkitPro2007/libnds/lib\libfat.a(io_njsd.o)
 .debug_ranges  0x000002b8      0x268 c:/devkitPro2007/libnds/lib\libfat.a(io_nmmc.o)
 .debug_ranges  0x00000520       0x30 c:/devkitPro2007/libnds/lib\libfat.a(io_scsd.o)
 .debug_ranges  0x00000550       0x30 c:/devkitPro2007/libnds/lib\libfat.a(cache.o)
 .debug_ranges  0x00000580       0xb0 c:/devkitPro2007/libnds/lib\libfat.a(fatdir.o)
 .debug_ranges  0x00000630      0x298 c:/devkitPro2007/libnds/lib\libfat.a(fatfile.o)
 .debug_ranges  0x000008c8       0x18 c:/devkitPro2007/libnds/lib\libfat.a(file_allocation_table.o)
 .debug_ranges  0x000008e0      0x148 c:/devkitPro2007/libnds/lib\libfat.a(directory.o)
 .debug_ranges  0x00000a28       0x88 c:/devkitPro2007/libnds/lib\libnds9.a(console.o)
 .debug_ranges  0x00000ab0       0x68 c:/devkitPro2007/libnds/lib\libnds9.a(card.o)
